
ctarget：     文件格式 elf64-x86-64


Disassembly of section .init:

0000000000001000 <_init>:
    1000:	f3 0f 1e fa          	endbr64 
    1004:	48 83 ec 08          	sub    $0x8,%rsp
    1008:	48 8b 05 d9 5f 00 00 	mov    0x5fd9(%rip),%rax        # 6fe8 <__gmon_start__>
    100f:	48 85 c0             	test   %rax,%rax
    1012:	74 02                	je     1016 <_init+0x16>
    1014:	ff d0                	call   *%rax
    1016:	48 83 c4 08          	add    $0x8,%rsp
    101a:	c3                   	ret    

Disassembly of section .plt:

0000000000001020 <.plt>:
    1020:	ff 35 aa 5e 00 00    	push   0x5eaa(%rip)        # 6ed0 <_GLOBAL_OFFSET_TABLE_+0x8>
    1026:	f2 ff 25 ab 5e 00 00 	bnd jmp *0x5eab(%rip)        # 6ed8 <_GLOBAL_OFFSET_TABLE_+0x10>
    102d:	0f 1f 00             	nopl   (%rax)
    1030:	f3 0f 1e fa          	endbr64 
    1034:	68 00 00 00 00       	push   $0x0
    1039:	f2 e9 e1 ff ff ff    	bnd jmp 1020 <.plt>
    103f:	90                   	nop
    1040:	f3 0f 1e fa          	endbr64 
    1044:	68 01 00 00 00       	push   $0x1
    1049:	f2 e9 d1 ff ff ff    	bnd jmp 1020 <.plt>
    104f:	90                   	nop
    1050:	f3 0f 1e fa          	endbr64 
    1054:	68 02 00 00 00       	push   $0x2
    1059:	f2 e9 c1 ff ff ff    	bnd jmp 1020 <.plt>
    105f:	90                   	nop
    1060:	f3 0f 1e fa          	endbr64 
    1064:	68 03 00 00 00       	push   $0x3
    1069:	f2 e9 b1 ff ff ff    	bnd jmp 1020 <.plt>
    106f:	90                   	nop
    1070:	f3 0f 1e fa          	endbr64 
    1074:	68 04 00 00 00       	push   $0x4
    1079:	f2 e9 a1 ff ff ff    	bnd jmp 1020 <.plt>
    107f:	90                   	nop
    1080:	f3 0f 1e fa          	endbr64 
    1084:	68 05 00 00 00       	push   $0x5
    1089:	f2 e9 91 ff ff ff    	bnd jmp 1020 <.plt>
    108f:	90                   	nop
    1090:	f3 0f 1e fa          	endbr64 
    1094:	68 06 00 00 00       	push   $0x6
    1099:	f2 e9 81 ff ff ff    	bnd jmp 1020 <.plt>
    109f:	90                   	nop
    10a0:	f3 0f 1e fa          	endbr64 
    10a4:	68 07 00 00 00       	push   $0x7
    10a9:	f2 e9 71 ff ff ff    	bnd jmp 1020 <.plt>
    10af:	90                   	nop
    10b0:	f3 0f 1e fa          	endbr64 
    10b4:	68 08 00 00 00       	push   $0x8
    10b9:	f2 e9 61 ff ff ff    	bnd jmp 1020 <.plt>
    10bf:	90                   	nop
    10c0:	f3 0f 1e fa          	endbr64 
    10c4:	68 09 00 00 00       	push   $0x9
    10c9:	f2 e9 51 ff ff ff    	bnd jmp 1020 <.plt>
    10cf:	90                   	nop
    10d0:	f3 0f 1e fa          	endbr64 
    10d4:	68 0a 00 00 00       	push   $0xa
    10d9:	f2 e9 41 ff ff ff    	bnd jmp 1020 <.plt>
    10df:	90                   	nop
    10e0:	f3 0f 1e fa          	endbr64 
    10e4:	68 0b 00 00 00       	push   $0xb
    10e9:	f2 e9 31 ff ff ff    	bnd jmp 1020 <.plt>
    10ef:	90                   	nop
    10f0:	f3 0f 1e fa          	endbr64 
    10f4:	68 0c 00 00 00       	push   $0xc
    10f9:	f2 e9 21 ff ff ff    	bnd jmp 1020 <.plt>
    10ff:	90                   	nop
    1100:	f3 0f 1e fa          	endbr64 
    1104:	68 0d 00 00 00       	push   $0xd
    1109:	f2 e9 11 ff ff ff    	bnd jmp 1020 <.plt>
    110f:	90                   	nop
    1110:	f3 0f 1e fa          	endbr64 
    1114:	68 0e 00 00 00       	push   $0xe
    1119:	f2 e9 01 ff ff ff    	bnd jmp 1020 <.plt>
    111f:	90                   	nop
    1120:	f3 0f 1e fa          	endbr64 
    1124:	68 0f 00 00 00       	push   $0xf
    1129:	f2 e9 f1 fe ff ff    	bnd jmp 1020 <.plt>
    112f:	90                   	nop
    1130:	f3 0f 1e fa          	endbr64 
    1134:	68 10 00 00 00       	push   $0x10
    1139:	f2 e9 e1 fe ff ff    	bnd jmp 1020 <.plt>
    113f:	90                   	nop
    1140:	f3 0f 1e fa          	endbr64 
    1144:	68 11 00 00 00       	push   $0x11
    1149:	f2 e9 d1 fe ff ff    	bnd jmp 1020 <.plt>
    114f:	90                   	nop
    1150:	f3 0f 1e fa          	endbr64 
    1154:	68 12 00 00 00       	push   $0x12
    1159:	f2 e9 c1 fe ff ff    	bnd jmp 1020 <.plt>
    115f:	90                   	nop
    1160:	f3 0f 1e fa          	endbr64 
    1164:	68 13 00 00 00       	push   $0x13
    1169:	f2 e9 b1 fe ff ff    	bnd jmp 1020 <.plt>
    116f:	90                   	nop
    1170:	f3 0f 1e fa          	endbr64 
    1174:	68 14 00 00 00       	push   $0x14
    1179:	f2 e9 a1 fe ff ff    	bnd jmp 1020 <.plt>
    117f:	90                   	nop
    1180:	f3 0f 1e fa          	endbr64 
    1184:	68 15 00 00 00       	push   $0x15
    1189:	f2 e9 91 fe ff ff    	bnd jmp 1020 <.plt>
    118f:	90                   	nop
    1190:	f3 0f 1e fa          	endbr64 
    1194:	68 16 00 00 00       	push   $0x16
    1199:	f2 e9 81 fe ff ff    	bnd jmp 1020 <.plt>
    119f:	90                   	nop
    11a0:	f3 0f 1e fa          	endbr64 
    11a4:	68 17 00 00 00       	push   $0x17
    11a9:	f2 e9 71 fe ff ff    	bnd jmp 1020 <.plt>
    11af:	90                   	nop
    11b0:	f3 0f 1e fa          	endbr64 
    11b4:	68 18 00 00 00       	push   $0x18
    11b9:	f2 e9 61 fe ff ff    	bnd jmp 1020 <.plt>
    11bf:	90                   	nop
    11c0:	f3 0f 1e fa          	endbr64 
    11c4:	68 19 00 00 00       	push   $0x19
    11c9:	f2 e9 51 fe ff ff    	bnd jmp 1020 <.plt>
    11cf:	90                   	nop
    11d0:	f3 0f 1e fa          	endbr64 
    11d4:	68 1a 00 00 00       	push   $0x1a
    11d9:	f2 e9 41 fe ff ff    	bnd jmp 1020 <.plt>
    11df:	90                   	nop
    11e0:	f3 0f 1e fa          	endbr64 
    11e4:	68 1b 00 00 00       	push   $0x1b
    11e9:	f2 e9 31 fe ff ff    	bnd jmp 1020 <.plt>
    11ef:	90                   	nop
    11f0:	f3 0f 1e fa          	endbr64 
    11f4:	68 1c 00 00 00       	push   $0x1c
    11f9:	f2 e9 21 fe ff ff    	bnd jmp 1020 <.plt>
    11ff:	90                   	nop
    1200:	f3 0f 1e fa          	endbr64 
    1204:	68 1d 00 00 00       	push   $0x1d
    1209:	f2 e9 11 fe ff ff    	bnd jmp 1020 <.plt>
    120f:	90                   	nop
    1210:	f3 0f 1e fa          	endbr64 
    1214:	68 1e 00 00 00       	push   $0x1e
    1219:	f2 e9 01 fe ff ff    	bnd jmp 1020 <.plt>
    121f:	90                   	nop

Disassembly of section .plt.got:

0000000000001220 <__cxa_finalize@plt>:
    1220:	f3 0f 1e fa          	endbr64 
    1224:	f2 ff 25 cd 5d 00 00 	bnd jmp *0x5dcd(%rip)        # 6ff8 <__cxa_finalize@GLIBC_2.2.5>
    122b:	0f 1f 44 00 00       	nopl   0x0(%rax,%rax,1)

Disassembly of section .plt.sec:

0000000000001230 <__errno_location@plt>:
    1230:	f3 0f 1e fa          	endbr64 
    1234:	f2 ff 25 a5 5c 00 00 	bnd jmp *0x5ca5(%rip)        # 6ee0 <__errno_location@GLIBC_2.2.5>
    123b:	0f 1f 44 00 00       	nopl   0x0(%rax,%rax,1)

0000000000001240 <srandom@plt>:
    1240:	f3 0f 1e fa          	endbr64 
    1244:	f2 ff 25 9d 5c 00 00 	bnd jmp *0x5c9d(%rip)        # 6ee8 <srandom@GLIBC_2.2.5>
    124b:	0f 1f 44 00 00       	nopl   0x0(%rax,%rax,1)

0000000000001250 <strncmp@plt>:
    1250:	f3 0f 1e fa          	endbr64 
    1254:	f2 ff 25 95 5c 00 00 	bnd jmp *0x5c95(%rip)        # 6ef0 <strncmp@GLIBC_2.2.5>
    125b:	0f 1f 44 00 00       	nopl   0x0(%rax,%rax,1)

0000000000001260 <strcpy@plt>:
    1260:	f3 0f 1e fa          	endbr64 
    1264:	f2 ff 25 8d 5c 00 00 	bnd jmp *0x5c8d(%rip)        # 6ef8 <strcpy@GLIBC_2.2.5>
    126b:	0f 1f 44 00 00       	nopl   0x0(%rax,%rax,1)

0000000000001270 <puts@plt>:
    1270:	f3 0f 1e fa          	endbr64 
    1274:	f2 ff 25 85 5c 00 00 	bnd jmp *0x5c85(%rip)        # 6f00 <puts@GLIBC_2.2.5>
    127b:	0f 1f 44 00 00       	nopl   0x0(%rax,%rax,1)

0000000000001280 <write@plt>:
    1280:	f3 0f 1e fa          	endbr64 
    1284:	f2 ff 25 7d 5c 00 00 	bnd jmp *0x5c7d(%rip)        # 6f08 <write@GLIBC_2.2.5>
    128b:	0f 1f 44 00 00       	nopl   0x0(%rax,%rax,1)

0000000000001290 <__stack_chk_fail@plt>:
    1290:	f3 0f 1e fa          	endbr64 
    1294:	f2 ff 25 75 5c 00 00 	bnd jmp *0x5c75(%rip)        # 6f10 <__stack_chk_fail@GLIBC_2.4>
    129b:	0f 1f 44 00 00       	nopl   0x0(%rax,%rax,1)

00000000000012a0 <mmap@plt>:
    12a0:	f3 0f 1e fa          	endbr64 
    12a4:	f2 ff 25 6d 5c 00 00 	bnd jmp *0x5c6d(%rip)        # 6f18 <mmap@GLIBC_2.2.5>
    12ab:	0f 1f 44 00 00       	nopl   0x0(%rax,%rax,1)

00000000000012b0 <memset@plt>:
    12b0:	f3 0f 1e fa          	endbr64 
    12b4:	f2 ff 25 65 5c 00 00 	bnd jmp *0x5c65(%rip)        # 6f20 <memset@GLIBC_2.2.5>
    12bb:	0f 1f 44 00 00       	nopl   0x0(%rax,%rax,1)

00000000000012c0 <alarm@plt>:
    12c0:	f3 0f 1e fa          	endbr64 
    12c4:	f2 ff 25 5d 5c 00 00 	bnd jmp *0x5c5d(%rip)        # 6f28 <alarm@GLIBC_2.2.5>
    12cb:	0f 1f 44 00 00       	nopl   0x0(%rax,%rax,1)

00000000000012d0 <close@plt>:
    12d0:	f3 0f 1e fa          	endbr64 
    12d4:	f2 ff 25 55 5c 00 00 	bnd jmp *0x5c55(%rip)        # 6f30 <close@GLIBC_2.2.5>
    12db:	0f 1f 44 00 00       	nopl   0x0(%rax,%rax,1)

00000000000012e0 <read@plt>:
    12e0:	f3 0f 1e fa          	endbr64 
    12e4:	f2 ff 25 4d 5c 00 00 	bnd jmp *0x5c4d(%rip)        # 6f38 <read@GLIBC_2.2.5>
    12eb:	0f 1f 44 00 00       	nopl   0x0(%rax,%rax,1)

00000000000012f0 <signal@plt>:
    12f0:	f3 0f 1e fa          	endbr64 
    12f4:	f2 ff 25 45 5c 00 00 	bnd jmp *0x5c45(%rip)        # 6f40 <signal@GLIBC_2.2.5>
    12fb:	0f 1f 44 00 00       	nopl   0x0(%rax,%rax,1)

0000000000001300 <gethostbyname@plt>:
    1300:	f3 0f 1e fa          	endbr64 
    1304:	f2 ff 25 3d 5c 00 00 	bnd jmp *0x5c3d(%rip)        # 6f48 <gethostbyname@GLIBC_2.2.5>
    130b:	0f 1f 44 00 00       	nopl   0x0(%rax,%rax,1)

0000000000001310 <__memmove_chk@plt>:
    1310:	f3 0f 1e fa          	endbr64 
    1314:	f2 ff 25 35 5c 00 00 	bnd jmp *0x5c35(%rip)        # 6f50 <__memmove_chk@GLIBC_2.3.4>
    131b:	0f 1f 44 00 00       	nopl   0x0(%rax,%rax,1)

0000000000001320 <strtol@plt>:
    1320:	f3 0f 1e fa          	endbr64 
    1324:	f2 ff 25 2d 5c 00 00 	bnd jmp *0x5c2d(%rip)        # 6f58 <strtol@GLIBC_2.2.5>
    132b:	0f 1f 44 00 00       	nopl   0x0(%rax,%rax,1)

0000000000001330 <memcpy@plt>:
    1330:	f3 0f 1e fa          	endbr64 
    1334:	f2 ff 25 25 5c 00 00 	bnd jmp *0x5c25(%rip)        # 6f60 <memcpy@GLIBC_2.14>
    133b:	0f 1f 44 00 00       	nopl   0x0(%rax,%rax,1)

0000000000001340 <time@plt>:
    1340:	f3 0f 1e fa          	endbr64 
    1344:	f2 ff 25 1d 5c 00 00 	bnd jmp *0x5c1d(%rip)        # 6f68 <time@GLIBC_2.2.5>
    134b:	0f 1f 44 00 00       	nopl   0x0(%rax,%rax,1)

0000000000001350 <random@plt>:
    1350:	f3 0f 1e fa          	endbr64 
    1354:	f2 ff 25 15 5c 00 00 	bnd jmp *0x5c15(%rip)        # 6f70 <random@GLIBC_2.2.5>
    135b:	0f 1f 44 00 00       	nopl   0x0(%rax,%rax,1)

0000000000001360 <__isoc99_sscanf@plt>:
    1360:	f3 0f 1e fa          	endbr64 
    1364:	f2 ff 25 0d 5c 00 00 	bnd jmp *0x5c0d(%rip)        # 6f78 <__isoc99_sscanf@GLIBC_2.7>
    136b:	0f 1f 44 00 00       	nopl   0x0(%rax,%rax,1)

0000000000001370 <munmap@plt>:
    1370:	f3 0f 1e fa          	endbr64 
    1374:	f2 ff 25 05 5c 00 00 	bnd jmp *0x5c05(%rip)        # 6f80 <munmap@GLIBC_2.2.5>
    137b:	0f 1f 44 00 00       	nopl   0x0(%rax,%rax,1)

0000000000001380 <__printf_chk@plt>:
    1380:	f3 0f 1e fa          	endbr64 
    1384:	f2 ff 25 fd 5b 00 00 	bnd jmp *0x5bfd(%rip)        # 6f88 <__printf_chk@GLIBC_2.3.4>
    138b:	0f 1f 44 00 00       	nopl   0x0(%rax,%rax,1)

0000000000001390 <fopen@plt>:
    1390:	f3 0f 1e fa          	endbr64 
    1394:	f2 ff 25 f5 5b 00 00 	bnd jmp *0x5bf5(%rip)        # 6f90 <fopen@GLIBC_2.2.5>
    139b:	0f 1f 44 00 00       	nopl   0x0(%rax,%rax,1)

00000000000013a0 <getopt@plt>:
    13a0:	f3 0f 1e fa          	endbr64 
    13a4:	f2 ff 25 ed 5b 00 00 	bnd jmp *0x5bed(%rip)        # 6f98 <getopt@GLIBC_2.2.5>
    13ab:	0f 1f 44 00 00       	nopl   0x0(%rax,%rax,1)

00000000000013b0 <strtoul@plt>:
    13b0:	f3 0f 1e fa          	endbr64 
    13b4:	f2 ff 25 e5 5b 00 00 	bnd jmp *0x5be5(%rip)        # 6fa0 <strtoul@GLIBC_2.2.5>
    13bb:	0f 1f 44 00 00       	nopl   0x0(%rax,%rax,1)

00000000000013c0 <exit@plt>:
    13c0:	f3 0f 1e fa          	endbr64 
    13c4:	f2 ff 25 dd 5b 00 00 	bnd jmp *0x5bdd(%rip)        # 6fa8 <exit@GLIBC_2.2.5>
    13cb:	0f 1f 44 00 00       	nopl   0x0(%rax,%rax,1)

00000000000013d0 <connect@plt>:
    13d0:	f3 0f 1e fa          	endbr64 
    13d4:	f2 ff 25 d5 5b 00 00 	bnd jmp *0x5bd5(%rip)        # 6fb0 <connect@GLIBC_2.2.5>
    13db:	0f 1f 44 00 00       	nopl   0x0(%rax,%rax,1)

00000000000013e0 <__fprintf_chk@plt>:
    13e0:	f3 0f 1e fa          	endbr64 
    13e4:	f2 ff 25 cd 5b 00 00 	bnd jmp *0x5bcd(%rip)        # 6fb8 <__fprintf_chk@GLIBC_2.3.4>
    13eb:	0f 1f 44 00 00       	nopl   0x0(%rax,%rax,1)

00000000000013f0 <getc@plt>:
    13f0:	f3 0f 1e fa          	endbr64 
    13f4:	f2 ff 25 c5 5b 00 00 	bnd jmp *0x5bc5(%rip)        # 6fc0 <getc@GLIBC_2.2.5>
    13fb:	0f 1f 44 00 00       	nopl   0x0(%rax,%rax,1)

0000000000001400 <__sprintf_chk@plt>:
    1400:	f3 0f 1e fa          	endbr64 
    1404:	f2 ff 25 bd 5b 00 00 	bnd jmp *0x5bbd(%rip)        # 6fc8 <__sprintf_chk@GLIBC_2.3.4>
    140b:	0f 1f 44 00 00       	nopl   0x0(%rax,%rax,1)

0000000000001410 <socket@plt>:
    1410:	f3 0f 1e fa          	endbr64 
    1414:	f2 ff 25 b5 5b 00 00 	bnd jmp *0x5bb5(%rip)        # 6fd0 <socket@GLIBC_2.2.5>
    141b:	0f 1f 44 00 00       	nopl   0x0(%rax,%rax,1)

Disassembly of section .text:

0000000000001420 <_start>:
    1420:	f3 0f 1e fa          	endbr64 
    1424:	31 ed                	xor    %ebp,%ebp
    1426:	49 89 d1             	mov    %rdx,%r9
    1429:	5e                   	pop    %rsi
    142a:	48 89 e2             	mov    %rsp,%rdx
    142d:	48 83 e4 f0          	and    $0xfffffffffffffff0,%rsp
    1431:	50                   	push   %rax
    1432:	54                   	push   %rsp
    1433:	4c 8d 05 86 20 00 00 	lea    0x2086(%rip),%r8        # 34c0 <__libc_csu_fini>
    143a:	48 8d 0d 0f 20 00 00 	lea    0x200f(%rip),%rcx        # 3450 <__libc_csu_init>
    1441:	48 8d 3d 74 02 00 00 	lea    0x274(%rip),%rdi        # 16bc <main>
    1448:	ff 15 92 5b 00 00    	call   *0x5b92(%rip)        # 6fe0 <__libc_start_main@GLIBC_2.2.5>
    144e:	f4                   	hlt    
    144f:	90                   	nop

0000000000001450 <deregister_tm_clones>:
    1450:	48 8d 3d 19 5f 00 00 	lea    0x5f19(%rip),%rdi        # 7370 <__TMC_END__>
    1457:	48 8d 05 12 5f 00 00 	lea    0x5f12(%rip),%rax        # 7370 <__TMC_END__>
    145e:	48 39 f8             	cmp    %rdi,%rax
    1461:	74 15                	je     1478 <deregister_tm_clones+0x28>
    1463:	48 8b 05 6e 5b 00 00 	mov    0x5b6e(%rip),%rax        # 6fd8 <_ITM_deregisterTMCloneTable>
    146a:	48 85 c0             	test   %rax,%rax
    146d:	74 09                	je     1478 <deregister_tm_clones+0x28>
    146f:	ff e0                	jmp    *%rax
    1471:	0f 1f 80 00 00 00 00 	nopl   0x0(%rax)
    1478:	c3                   	ret    
    1479:	0f 1f 80 00 00 00 00 	nopl   0x0(%rax)

0000000000001480 <register_tm_clones>:
    1480:	48 8d 3d e9 5e 00 00 	lea    0x5ee9(%rip),%rdi        # 7370 <__TMC_END__>
    1487:	48 8d 35 e2 5e 00 00 	lea    0x5ee2(%rip),%rsi        # 7370 <__TMC_END__>
    148e:	48 29 fe             	sub    %rdi,%rsi
    1491:	48 89 f0             	mov    %rsi,%rax
    1494:	48 c1 ee 3f          	shr    $0x3f,%rsi
    1498:	48 c1 f8 03          	sar    $0x3,%rax
    149c:	48 01 c6             	add    %rax,%rsi
    149f:	48 d1 fe             	sar    %rsi
    14a2:	74 14                	je     14b8 <register_tm_clones+0x38>
    14a4:	48 8b 05 45 5b 00 00 	mov    0x5b45(%rip),%rax        # 6ff0 <_ITM_registerTMCloneTable>
    14ab:	48 85 c0             	test   %rax,%rax
    14ae:	74 08                	je     14b8 <register_tm_clones+0x38>
    14b0:	ff e0                	jmp    *%rax
    14b2:	66 0f 1f 44 00 00    	nopw   0x0(%rax,%rax,1)
    14b8:	c3                   	ret    
    14b9:	0f 1f 80 00 00 00 00 	nopl   0x0(%rax)

00000000000014c0 <__do_global_dtors_aux>:
    14c0:	f3 0f 1e fa          	endbr64 
    14c4:	80 3d dd 5e 00 00 00 	cmpb   $0x0,0x5edd(%rip)        # 73a8 <completed.8061>
    14cb:	75 2b                	jne    14f8 <__do_global_dtors_aux+0x38>
    14cd:	55                   	push   %rbp
    14ce:	48 83 3d 22 5b 00 00 	cmpq   $0x0,0x5b22(%rip)        # 6ff8 <__cxa_finalize@GLIBC_2.2.5>
    14d5:	00 
    14d6:	48 89 e5             	mov    %rsp,%rbp
    14d9:	74 0c                	je     14e7 <__do_global_dtors_aux+0x27>
    14db:	48 8b 3d 26 5b 00 00 	mov    0x5b26(%rip),%rdi        # 7008 <__dso_handle>
    14e2:	e8 39 fd ff ff       	call   1220 <__cxa_finalize@plt>
    14e7:	e8 64 ff ff ff       	call   1450 <deregister_tm_clones>
    14ec:	c6 05 b5 5e 00 00 01 	movb   $0x1,0x5eb5(%rip)        # 73a8 <completed.8061>
    14f3:	5d                   	pop    %rbp
    14f4:	c3                   	ret    
    14f5:	0f 1f 00             	nopl   (%rax)
    14f8:	c3                   	ret    
    14f9:	0f 1f 80 00 00 00 00 	nopl   0x0(%rax)

0000000000001500 <frame_dummy>:
    1500:	f3 0f 1e fa          	endbr64 
    1504:	e9 77 ff ff ff       	jmp    1480 <register_tm_clones>

0000000000001509 <usage>:
    1509:	50                   	push   %rax
    150a:	58                   	pop    %rax
    150b:	48 83 ec 08          	sub    $0x8,%rsp
    150f:	48 89 fa             	mov    %rdi,%rdx
    1512:	83 3d cf 5e 00 00 00 	cmpl   $0x0,0x5ecf(%rip)        # 73e8 <is_checker>
    1519:	74 50                	je     156b <usage+0x62>
    151b:	48 8d 35 e6 2a 00 00 	lea    0x2ae6(%rip),%rsi        # 4008 <_IO_stdin_used+0x8>
    1522:	bf 01 00 00 00       	mov    $0x1,%edi
    1527:	b8 00 00 00 00       	mov    $0x0,%eax
    152c:	e8 4f fe ff ff       	call   1380 <__printf_chk@plt>
    1531:	48 8d 3d 08 2b 00 00 	lea    0x2b08(%rip),%rdi        # 4040 <_IO_stdin_used+0x40>
    1538:	e8 33 fd ff ff       	call   1270 <puts@plt>
    153d:	48 8d 3d fc 2b 00 00 	lea    0x2bfc(%rip),%rdi        # 4140 <_IO_stdin_used+0x140>
    1544:	e8 27 fd ff ff       	call   1270 <puts@plt>
    1549:	48 8d 3d 18 2b 00 00 	lea    0x2b18(%rip),%rdi        # 4068 <_IO_stdin_used+0x68>
    1550:	e8 1b fd ff ff       	call   1270 <puts@plt>
    1555:	48 8d 3d fe 2b 00 00 	lea    0x2bfe(%rip),%rdi        # 415a <_IO_stdin_used+0x15a>
    155c:	e8 0f fd ff ff       	call   1270 <puts@plt>
    1561:	bf 00 00 00 00       	mov    $0x0,%edi
    1566:	e8 55 fe ff ff       	call   13c0 <exit@plt>
    156b:	48 8d 35 04 2c 00 00 	lea    0x2c04(%rip),%rsi        # 4176 <_IO_stdin_used+0x176>
    1572:	bf 01 00 00 00       	mov    $0x1,%edi
    1577:	b8 00 00 00 00       	mov    $0x0,%eax
    157c:	e8 ff fd ff ff       	call   1380 <__printf_chk@plt>
    1581:	48 8d 3d 08 2b 00 00 	lea    0x2b08(%rip),%rdi        # 4090 <_IO_stdin_used+0x90>
    1588:	e8 e3 fc ff ff       	call   1270 <puts@plt>
    158d:	48 8d 3d 24 2b 00 00 	lea    0x2b24(%rip),%rdi        # 40b8 <_IO_stdin_used+0xb8>
    1594:	e8 d7 fc ff ff       	call   1270 <puts@plt>
    1599:	48 8d 3d f4 2b 00 00 	lea    0x2bf4(%rip),%rdi        # 4194 <_IO_stdin_used+0x194>
    15a0:	e8 cb fc ff ff       	call   1270 <puts@plt>
    15a5:	eb ba                	jmp    1561 <usage+0x58>

00000000000015a7 <initialize_target>:
    15a7:	55                   	push   %rbp
    15a8:	53                   	push   %rbx
    15a9:	48 81 ec 00 10 00 00 	sub    $0x1000,%rsp
    15b0:	48 83 0c 24 00       	orq    $0x0,(%rsp)
    15b5:	48 81 ec 00 10 00 00 	sub    $0x1000,%rsp
    15bc:	48 83 0c 24 00       	orq    $0x0,(%rsp)
    15c1:	48 83 ec 18          	sub    $0x18,%rsp
    15c5:	89 f5                	mov    %esi,%ebp
    15c7:	64 48 8b 04 25 28 00 	mov    %fs:0x28,%rax
    15ce:	00 00 
    15d0:	48 89 84 24 08 20 00 	mov    %rax,0x2008(%rsp)
    15d7:	00 
    15d8:	31 c0                	xor    %eax,%eax
    15da:	89 3d f8 5d 00 00    	mov    %edi,0x5df8(%rip)        # 73d8 <check_level>
    15e0:	8b 3d 2a 5a 00 00    	mov    0x5a2a(%rip),%edi        # 7010 <target_id>
    15e6:	e8 33 1e 00 00       	call   341e <gencookie>
    15eb:	89 c7                	mov    %eax,%edi
    15ed:	89 05 f1 5d 00 00    	mov    %eax,0x5df1(%rip)        # 73e4 <cookie>
    15f3:	e8 26 1e 00 00       	call   341e <gencookie>
    15f8:	89 05 e2 5d 00 00    	mov    %eax,0x5de2(%rip)        # 73e0 <authkey>
    15fe:	8b 05 0c 5a 00 00    	mov    0x5a0c(%rip),%eax        # 7010 <target_id>
    1604:	8d 78 01             	lea    0x1(%rax),%edi
    1607:	e8 34 fc ff ff       	call   1240 <srandom@plt>
    160c:	e8 3f fd ff ff       	call   1350 <random@plt>
    1611:	48 89 c7             	mov    %rax,%rdi
    1614:	e8 93 02 00 00       	call   18ac <scramble>
    1619:	89 c3                	mov    %eax,%ebx
    161b:	85 ed                	test   %ebp,%ebp
    161d:	75 50                	jne    166f <initialize_target+0xc8>
    161f:	b8 00 00 00 00       	mov    $0x0,%eax
    1624:	01 d8                	add    %ebx,%eax
    1626:	0f b7 c0             	movzwl %ax,%eax
    1629:	8d 04 c5 00 01 00 00 	lea    0x100(,%rax,8),%eax
    1630:	89 c0                	mov    %eax,%eax
    1632:	48 89 05 27 5d 00 00 	mov    %rax,0x5d27(%rip)        # 7360 <buf_offset>
    1639:	c6 05 c8 69 00 00 63 	movb   $0x63,0x69c8(%rip)        # 8008 <target_prefix>
    1640:	83 3d 21 5d 00 00 00 	cmpl   $0x0,0x5d21(%rip)        # 7368 <notify>
    1647:	74 09                	je     1652 <initialize_target+0xab>
    1649:	83 3d 98 5d 00 00 00 	cmpl   $0x0,0x5d98(%rip)        # 73e8 <is_checker>
    1650:	74 36                	je     1688 <initialize_target+0xe1>
    1652:	48 8b 84 24 08 20 00 	mov    0x2008(%rsp),%rax
    1659:	00 
    165a:	64 48 33 04 25 28 00 	xor    %fs:0x28,%rax
    1661:	00 00 
    1663:	75 52                	jne    16b7 <initialize_target+0x110>
    1665:	48 81 c4 18 20 00 00 	add    $0x2018,%rsp
    166c:	5b                   	pop    %rbx
    166d:	5d                   	pop    %rbp
    166e:	c3                   	ret    
    166f:	bf 00 00 00 00       	mov    $0x0,%edi
    1674:	e8 c7 fc ff ff       	call   1340 <time@plt>
    1679:	48 89 c7             	mov    %rax,%rdi
    167c:	e8 bf fb ff ff       	call   1240 <srandom@plt>
    1681:	e8 ca fc ff ff       	call   1350 <random@plt>
    1686:	eb 9c                	jmp    1624 <initialize_target+0x7d>
    1688:	48 89 e7             	mov    %rsp,%rdi
    168b:	e8 d3 1a 00 00       	call   3163 <init_driver>
    1690:	85 c0                	test   %eax,%eax
    1692:	79 be                	jns    1652 <initialize_target+0xab>
    1694:	48 89 e2             	mov    %rsp,%rdx
    1697:	48 8d 35 4a 2a 00 00 	lea    0x2a4a(%rip),%rsi        # 40e8 <_IO_stdin_used+0xe8>
    169e:	bf 01 00 00 00       	mov    $0x1,%edi
    16a3:	b8 00 00 00 00       	mov    $0x0,%eax
    16a8:	e8 d3 fc ff ff       	call   1380 <__printf_chk@plt>
    16ad:	bf 08 00 00 00       	mov    $0x8,%edi
    16b2:	e8 09 fd ff ff       	call   13c0 <exit@plt>
    16b7:	e8 d4 fb ff ff       	call   1290 <__stack_chk_fail@plt>

00000000000016bc <main>:
    16bc:	f3 0f 1e fa          	endbr64 
    16c0:	41 56                	push   %r14
    16c2:	41 55                	push   %r13
    16c4:	41 54                	push   %r12
    16c6:	55                   	push   %rbp
    16c7:	53                   	push   %rbx
    16c8:	89 fd                	mov    %edi,%ebp
    16ca:	48 89 f3             	mov    %rsi,%rbx
    16cd:	48 8d 35 32 0d 00 00 	lea    0xd32(%rip),%rsi        # 2406 <seghandler>
    16d4:	bf 0b 00 00 00       	mov    $0xb,%edi
    16d9:	e8 12 fc ff ff       	call   12f0 <signal@plt>
    16de:	48 8d 35 c7 0c 00 00 	lea    0xcc7(%rip),%rsi        # 23ac <bushandler>
    16e5:	bf 07 00 00 00       	mov    $0x7,%edi
    16ea:	e8 01 fc ff ff       	call   12f0 <signal@plt>
    16ef:	48 8d 35 6a 0d 00 00 	lea    0xd6a(%rip),%rsi        # 2460 <illegalhandler>
    16f6:	bf 04 00 00 00       	mov    $0x4,%edi
    16fb:	e8 f0 fb ff ff       	call   12f0 <signal@plt>
    1700:	83 3d e1 5c 00 00 00 	cmpl   $0x0,0x5ce1(%rip)        # 73e8 <is_checker>
    1707:	75 26                	jne    172f <main+0x73>
    1709:	4c 8d 25 a5 2a 00 00 	lea    0x2aa5(%rip),%r12        # 41b5 <_IO_stdin_used+0x1b5>
    1710:	48 8b 05 69 5c 00 00 	mov    0x5c69(%rip),%rax        # 7380 <stdin@GLIBC_2.2.5>
    1717:	48 89 05 b2 5c 00 00 	mov    %rax,0x5cb2(%rip)        # 73d0 <infile>
    171e:	41 bd 00 00 00 00    	mov    $0x0,%r13d
    1724:	41 be 00 00 00 00    	mov    $0x0,%r14d
    172a:	e9 8d 00 00 00       	jmp    17bc <main+0x100>
    172f:	48 8d 35 84 0d 00 00 	lea    0xd84(%rip),%rsi        # 24ba <sigalrmhandler>
    1736:	bf 0e 00 00 00       	mov    $0xe,%edi
    173b:	e8 b0 fb ff ff       	call   12f0 <signal@plt>
    1740:	bf 05 00 00 00       	mov    $0x5,%edi
    1745:	e8 76 fb ff ff       	call   12c0 <alarm@plt>
    174a:	4c 8d 25 5c 2a 00 00 	lea    0x2a5c(%rip),%r12        # 41ad <_IO_stdin_used+0x1ad>
    1751:	eb bd                	jmp    1710 <main+0x54>
    1753:	48 8b 3b             	mov    (%rbx),%rdi
    1756:	e8 ae fd ff ff       	call   1509 <usage>
    175b:	48 8d 35 db 2c 00 00 	lea    0x2cdb(%rip),%rsi        # 443d <_IO_stdin_used+0x43d>
    1762:	48 8b 3d 1f 5c 00 00 	mov    0x5c1f(%rip),%rdi        # 7388 <optarg@GLIBC_2.2.5>
    1769:	e8 22 fc ff ff       	call   1390 <fopen@plt>
    176e:	48 89 05 5b 5c 00 00 	mov    %rax,0x5c5b(%rip)        # 73d0 <infile>
    1775:	48 85 c0             	test   %rax,%rax
    1778:	75 42                	jne    17bc <main+0x100>
    177a:	48 8b 0d 07 5c 00 00 	mov    0x5c07(%rip),%rcx        # 7388 <optarg@GLIBC_2.2.5>
    1781:	48 8d 15 32 2a 00 00 	lea    0x2a32(%rip),%rdx        # 41ba <_IO_stdin_used+0x1ba>
    1788:	be 01 00 00 00       	mov    $0x1,%esi
    178d:	48 8b 3d 0c 5c 00 00 	mov    0x5c0c(%rip),%rdi        # 73a0 <stderr@GLIBC_2.2.5>
    1794:	e8 47 fc ff ff       	call   13e0 <__fprintf_chk@plt>
    1799:	b8 01 00 00 00       	mov    $0x1,%eax
    179e:	e9 db 00 00 00       	jmp    187e <main+0x1c2>
    17a3:	ba 10 00 00 00       	mov    $0x10,%edx
    17a8:	be 00 00 00 00       	mov    $0x0,%esi
    17ad:	48 8b 3d d4 5b 00 00 	mov    0x5bd4(%rip),%rdi        # 7388 <optarg@GLIBC_2.2.5>
    17b4:	e8 f7 fb ff ff       	call   13b0 <strtoul@plt>
    17b9:	41 89 c6             	mov    %eax,%r14d
    17bc:	4c 89 e2             	mov    %r12,%rdx
    17bf:	48 89 de             	mov    %rbx,%rsi
    17c2:	89 ef                	mov    %ebp,%edi
    17c4:	e8 d7 fb ff ff       	call   13a0 <getopt@plt>
    17c9:	3c ff                	cmp    $0xff,%al
    17cb:	74 65                	je     1832 <main+0x176>
    17cd:	0f be c8             	movsbl %al,%ecx
    17d0:	83 e8 61             	sub    $0x61,%eax
    17d3:	3c 10                	cmp    $0x10,%al
    17d5:	77 3b                	ja     1812 <main+0x156>
    17d7:	0f b6 c0             	movzbl %al,%eax
    17da:	48 8d 15 17 2a 00 00 	lea    0x2a17(%rip),%rdx        # 41f8 <_IO_stdin_used+0x1f8>
    17e1:	48 63 04 82          	movslq (%rdx,%rax,4),%rax
    17e5:	48 01 d0             	add    %rdx,%rax
    17e8:	3e ff e0             	notrack jmp *%rax
    17eb:	ba 0a 00 00 00       	mov    $0xa,%edx
    17f0:	be 00 00 00 00       	mov    $0x0,%esi
    17f5:	48 8b 3d 8c 5b 00 00 	mov    0x5b8c(%rip),%rdi        # 7388 <optarg@GLIBC_2.2.5>
    17fc:	e8 1f fb ff ff       	call   1320 <strtol@plt>
    1801:	41 89 c5             	mov    %eax,%r13d
    1804:	eb b6                	jmp    17bc <main+0x100>
    1806:	c7 05 58 5b 00 00 00 	movl   $0x0,0x5b58(%rip)        # 7368 <notify>
    180d:	00 00 00 
    1810:	eb aa                	jmp    17bc <main+0x100>
    1812:	89 ca                	mov    %ecx,%edx
    1814:	48 8d 35 bc 29 00 00 	lea    0x29bc(%rip),%rsi        # 41d7 <_IO_stdin_used+0x1d7>
    181b:	bf 01 00 00 00       	mov    $0x1,%edi
    1820:	b8 00 00 00 00       	mov    $0x0,%eax
    1825:	e8 56 fb ff ff       	call   1380 <__printf_chk@plt>
    182a:	48 8b 3b             	mov    (%rbx),%rdi
    182d:	e8 d7 fc ff ff       	call   1509 <usage>
    1832:	be 00 00 00 00       	mov    $0x0,%esi
    1837:	44 89 ef             	mov    %r13d,%edi
    183a:	e8 68 fd ff ff       	call   15a7 <initialize_target>
    183f:	83 3d a2 5b 00 00 00 	cmpl   $0x0,0x5ba2(%rip)        # 73e8 <is_checker>
    1846:	74 09                	je     1851 <main+0x195>
    1848:	44 39 35 91 5b 00 00 	cmp    %r14d,0x5b91(%rip)        # 73e0 <authkey>
    184f:	75 36                	jne    1887 <main+0x1cb>
    1851:	8b 15 8d 5b 00 00    	mov    0x5b8d(%rip),%edx        # 73e4 <cookie>
    1857:	48 8d 35 8c 29 00 00 	lea    0x298c(%rip),%rsi        # 41ea <_IO_stdin_used+0x1ea>
    185e:	bf 01 00 00 00       	mov    $0x1,%edi
    1863:	b8 00 00 00 00       	mov    $0x0,%eax
    1868:	e8 13 fb ff ff       	call   1380 <__printf_chk@plt>
    186d:	48 8b 3d ec 5a 00 00 	mov    0x5aec(%rip),%rdi        # 7360 <buf_offset>
    1874:	e8 93 0d 00 00       	call   260c <stable_launch>
    1879:	b8 00 00 00 00       	mov    $0x0,%eax
    187e:	5b                   	pop    %rbx
    187f:	5d                   	pop    %rbp
    1880:	41 5c                	pop    %r12
    1882:	41 5d                	pop    %r13
    1884:	41 5e                	pop    %r14
    1886:	c3                   	ret    
    1887:	44 89 f2             	mov    %r14d,%edx
    188a:	48 8d 35 7f 28 00 00 	lea    0x287f(%rip),%rsi        # 4110 <_IO_stdin_used+0x110>
    1891:	bf 01 00 00 00       	mov    $0x1,%edi
    1896:	b8 00 00 00 00       	mov    $0x0,%eax
    189b:	e8 e0 fa ff ff       	call   1380 <__printf_chk@plt>
    18a0:	b8 00 00 00 00       	mov    $0x0,%eax
    18a5:	e8 51 07 00 00       	call   1ffb <check_fail>
    18aa:	eb a5                	jmp    1851 <main+0x195>

00000000000018ac <scramble>:
    18ac:	f3 0f 1e fa          	endbr64 
    18b0:	48 83 ec 38          	sub    $0x38,%rsp
    18b4:	64 48 8b 04 25 28 00 	mov    %fs:0x28,%rax
    18bb:	00 00 
    18bd:	48 89 44 24 28       	mov    %rax,0x28(%rsp)
    18c2:	31 c0                	xor    %eax,%eax
    18c4:	83 f8 09             	cmp    $0x9,%eax
    18c7:	77 12                	ja     18db <scramble+0x2f>
    18c9:	69 d0 25 7d 00 00    	imul   $0x7d25,%eax,%edx
    18cf:	01 fa                	add    %edi,%edx
    18d1:	89 c1                	mov    %eax,%ecx
    18d3:	89 14 8c             	mov    %edx,(%rsp,%rcx,4)
    18d6:	83 c0 01             	add    $0x1,%eax
    18d9:	eb e9                	jmp    18c4 <scramble+0x18>
    18db:	8b 44 24 18          	mov    0x18(%rsp),%eax
    18df:	69 c0 57 d2 00 00    	imul   $0xd257,%eax,%eax
    18e5:	89 44 24 18          	mov    %eax,0x18(%rsp)
    18e9:	8b 44 24 20          	mov    0x20(%rsp),%eax
    18ed:	69 c0 e3 9d 00 00    	imul   $0x9de3,%eax,%eax
    18f3:	89 44 24 20          	mov    %eax,0x20(%rsp)
    18f7:	8b 44 24 08          	mov    0x8(%rsp),%eax
    18fb:	69 c0 a3 ab 00 00    	imul   $0xaba3,%eax,%eax
    1901:	89 44 24 08          	mov    %eax,0x8(%rsp)
    1905:	8b 44 24 24          	mov    0x24(%rsp),%eax
    1909:	69 c0 dd ed 00 00    	imul   $0xeddd,%eax,%eax
    190f:	89 44 24 24          	mov    %eax,0x24(%rsp)
    1913:	8b 44 24 18          	mov    0x18(%rsp),%eax
    1917:	69 c0 d0 0e 00 00    	imul   $0xed0,%eax,%eax
    191d:	89 44 24 18          	mov    %eax,0x18(%rsp)
    1921:	8b 44 24 24          	mov    0x24(%rsp),%eax
    1925:	69 c0 25 1f 00 00    	imul   $0x1f25,%eax,%eax
    192b:	89 44 24 24          	mov    %eax,0x24(%rsp)
    192f:	8b 44 24 1c          	mov    0x1c(%rsp),%eax
    1933:	69 c0 3f e5 00 00    	imul   $0xe53f,%eax,%eax
    1939:	89 44 24 1c          	mov    %eax,0x1c(%rsp)
    193d:	8b 44 24 1c          	mov    0x1c(%rsp),%eax
    1941:	69 c0 ab 6a 00 00    	imul   $0x6aab,%eax,%eax
    1947:	89 44 24 1c          	mov    %eax,0x1c(%rsp)
    194b:	8b 44 24 20          	mov    0x20(%rsp),%eax
    194f:	69 c0 1a aa 00 00    	imul   $0xaa1a,%eax,%eax
    1955:	89 44 24 20          	mov    %eax,0x20(%rsp)
    1959:	8b 44 24 14          	mov    0x14(%rsp),%eax
    195d:	69 c0 5c 17 00 00    	imul   $0x175c,%eax,%eax
    1963:	89 44 24 14          	mov    %eax,0x14(%rsp)
    1967:	8b 44 24 18          	mov    0x18(%rsp),%eax
    196b:	69 c0 1a da 00 00    	imul   $0xda1a,%eax,%eax
    1971:	89 44 24 18          	mov    %eax,0x18(%rsp)
    1975:	8b 44 24 1c          	mov    0x1c(%rsp),%eax
    1979:	69 c0 1b a3 00 00    	imul   $0xa31b,%eax,%eax
    197f:	89 44 24 1c          	mov    %eax,0x1c(%rsp)
    1983:	8b 44 24 0c          	mov    0xc(%rsp),%eax
    1987:	69 c0 d3 80 00 00    	imul   $0x80d3,%eax,%eax
    198d:	89 44 24 0c          	mov    %eax,0xc(%rsp)
    1991:	8b 44 24 18          	mov    0x18(%rsp),%eax
    1995:	69 c0 ca 62 00 00    	imul   $0x62ca,%eax,%eax
    199b:	89 44 24 18          	mov    %eax,0x18(%rsp)
    199f:	8b 44 24 18          	mov    0x18(%rsp),%eax
    19a3:	69 c0 ab 31 00 00    	imul   $0x31ab,%eax,%eax
    19a9:	89 44 24 18          	mov    %eax,0x18(%rsp)
    19ad:	8b 44 24 08          	mov    0x8(%rsp),%eax
    19b1:	69 c0 df f0 00 00    	imul   $0xf0df,%eax,%eax
    19b7:	89 44 24 08          	mov    %eax,0x8(%rsp)
    19bb:	8b 44 24 24          	mov    0x24(%rsp),%eax
    19bf:	69 c0 52 ae 00 00    	imul   $0xae52,%eax,%eax
    19c5:	89 44 24 24          	mov    %eax,0x24(%rsp)
    19c9:	8b 44 24 24          	mov    0x24(%rsp),%eax
    19cd:	69 c0 a4 12 00 00    	imul   $0x12a4,%eax,%eax
    19d3:	89 44 24 24          	mov    %eax,0x24(%rsp)
    19d7:	8b 44 24 08          	mov    0x8(%rsp),%eax
    19db:	69 c0 3b 17 00 00    	imul   $0x173b,%eax,%eax
    19e1:	89 44 24 08          	mov    %eax,0x8(%rsp)
    19e5:	8b 44 24 04          	mov    0x4(%rsp),%eax
    19e9:	69 c0 6d 5b 00 00    	imul   $0x5b6d,%eax,%eax
    19ef:	89 44 24 04          	mov    %eax,0x4(%rsp)
    19f3:	8b 44 24 20          	mov    0x20(%rsp),%eax
    19f7:	69 c0 6e 16 00 00    	imul   $0x166e,%eax,%eax
    19fd:	89 44 24 20          	mov    %eax,0x20(%rsp)
    1a01:	8b 44 24 0c          	mov    0xc(%rsp),%eax
    1a05:	69 c0 ff 5f 00 00    	imul   $0x5fff,%eax,%eax
    1a0b:	89 44 24 0c          	mov    %eax,0xc(%rsp)
    1a0f:	8b 44 24 08          	mov    0x8(%rsp),%eax
    1a13:	69 c0 e7 09 00 00    	imul   $0x9e7,%eax,%eax
    1a19:	89 44 24 08          	mov    %eax,0x8(%rsp)
    1a1d:	8b 44 24 0c          	mov    0xc(%rsp),%eax
    1a21:	69 c0 26 e1 00 00    	imul   $0xe126,%eax,%eax
    1a27:	89 44 24 0c          	mov    %eax,0xc(%rsp)
    1a2b:	8b 44 24 18          	mov    0x18(%rsp),%eax
    1a2f:	69 c0 e8 cd 00 00    	imul   $0xcde8,%eax,%eax
    1a35:	89 44 24 18          	mov    %eax,0x18(%rsp)
    1a39:	8b 44 24 20          	mov    0x20(%rsp),%eax
    1a3d:	69 c0 08 f4 00 00    	imul   $0xf408,%eax,%eax
    1a43:	89 44 24 20          	mov    %eax,0x20(%rsp)
    1a47:	8b 44 24 14          	mov    0x14(%rsp),%eax
    1a4b:	69 c0 3e 50 00 00    	imul   $0x503e,%eax,%eax
    1a51:	89 44 24 14          	mov    %eax,0x14(%rsp)
    1a55:	8b 44 24 14          	mov    0x14(%rsp),%eax
    1a59:	69 c0 b3 ee 00 00    	imul   $0xeeb3,%eax,%eax
    1a5f:	89 44 24 14          	mov    %eax,0x14(%rsp)
    1a63:	8b 44 24 04          	mov    0x4(%rsp),%eax
    1a67:	69 c0 b5 51 00 00    	imul   $0x51b5,%eax,%eax
    1a6d:	89 44 24 04          	mov    %eax,0x4(%rsp)
    1a71:	8b 44 24 08          	mov    0x8(%rsp),%eax
    1a75:	69 c0 cb 44 00 00    	imul   $0x44cb,%eax,%eax
    1a7b:	89 44 24 08          	mov    %eax,0x8(%rsp)
    1a7f:	8b 44 24 20          	mov    0x20(%rsp),%eax
    1a83:	69 c0 a5 50 00 00    	imul   $0x50a5,%eax,%eax
    1a89:	89 44 24 20          	mov    %eax,0x20(%rsp)
    1a8d:	8b 44 24 10          	mov    0x10(%rsp),%eax
    1a91:	69 c0 62 87 00 00    	imul   $0x8762,%eax,%eax
    1a97:	89 44 24 10          	mov    %eax,0x10(%rsp)
    1a9b:	8b 44 24 04          	mov    0x4(%rsp),%eax
    1a9f:	69 c0 6d c4 00 00    	imul   $0xc46d,%eax,%eax
    1aa5:	89 44 24 04          	mov    %eax,0x4(%rsp)
    1aa9:	8b 44 24 04          	mov    0x4(%rsp),%eax
    1aad:	69 c0 ed 58 00 00    	imul   $0x58ed,%eax,%eax
    1ab3:	89 44 24 04          	mov    %eax,0x4(%rsp)
    1ab7:	8b 44 24 18          	mov    0x18(%rsp),%eax
    1abb:	69 c0 89 9a 00 00    	imul   $0x9a89,%eax,%eax
    1ac1:	89 44 24 18          	mov    %eax,0x18(%rsp)
    1ac5:	8b 44 24 14          	mov    0x14(%rsp),%eax
    1ac9:	69 c0 b4 01 00 00    	imul   $0x1b4,%eax,%eax
    1acf:	89 44 24 14          	mov    %eax,0x14(%rsp)
    1ad3:	8b 44 24 14          	mov    0x14(%rsp),%eax
    1ad7:	69 c0 ec 2e 00 00    	imul   $0x2eec,%eax,%eax
    1add:	89 44 24 14          	mov    %eax,0x14(%rsp)
    1ae1:	8b 44 24 04          	mov    0x4(%rsp),%eax
    1ae5:	69 c0 a4 ac 00 00    	imul   $0xaca4,%eax,%eax
    1aeb:	89 44 24 04          	mov    %eax,0x4(%rsp)
    1aef:	8b 44 24 10          	mov    0x10(%rsp),%eax
    1af3:	69 c0 5d 2c 00 00    	imul   $0x2c5d,%eax,%eax
    1af9:	89 44 24 10          	mov    %eax,0x10(%rsp)
    1afd:	8b 44 24 24          	mov    0x24(%rsp),%eax
    1b01:	69 c0 d4 ec 00 00    	imul   $0xecd4,%eax,%eax
    1b07:	89 44 24 24          	mov    %eax,0x24(%rsp)
    1b0b:	8b 44 24 1c          	mov    0x1c(%rsp),%eax
    1b0f:	69 c0 4c 86 00 00    	imul   $0x864c,%eax,%eax
    1b15:	89 44 24 1c          	mov    %eax,0x1c(%rsp)
    1b19:	8b 44 24 08          	mov    0x8(%rsp),%eax
    1b1d:	69 c0 47 a2 00 00    	imul   $0xa247,%eax,%eax
    1b23:	89 44 24 08          	mov    %eax,0x8(%rsp)
    1b27:	8b 44 24 1c          	mov    0x1c(%rsp),%eax
    1b2b:	69 c0 00 78 00 00    	imul   $0x7800,%eax,%eax
    1b31:	89 44 24 1c          	mov    %eax,0x1c(%rsp)
    1b35:	8b 44 24 0c          	mov    0xc(%rsp),%eax
    1b39:	69 c0 9b a7 00 00    	imul   $0xa79b,%eax,%eax
    1b3f:	89 44 24 0c          	mov    %eax,0xc(%rsp)
    1b43:	8b 44 24 08          	mov    0x8(%rsp),%eax
    1b47:	69 c0 78 e2 00 00    	imul   $0xe278,%eax,%eax
    1b4d:	89 44 24 08          	mov    %eax,0x8(%rsp)
    1b51:	8b 44 24 08          	mov    0x8(%rsp),%eax
    1b55:	69 c0 15 4d 00 00    	imul   $0x4d15,%eax,%eax
    1b5b:	89 44 24 08          	mov    %eax,0x8(%rsp)
    1b5f:	8b 44 24 10          	mov    0x10(%rsp),%eax
    1b63:	69 c0 10 22 00 00    	imul   $0x2210,%eax,%eax
    1b69:	89 44 24 10          	mov    %eax,0x10(%rsp)
    1b6d:	8b 04 24             	mov    (%rsp),%eax
    1b70:	69 c0 16 32 00 00    	imul   $0x3216,%eax,%eax
    1b76:	89 04 24             	mov    %eax,(%rsp)
    1b79:	8b 44 24 04          	mov    0x4(%rsp),%eax
    1b7d:	69 c0 7f 6e 00 00    	imul   $0x6e7f,%eax,%eax
    1b83:	89 44 24 04          	mov    %eax,0x4(%rsp)
    1b87:	8b 44 24 08          	mov    0x8(%rsp),%eax
    1b8b:	69 c0 27 c2 00 00    	imul   $0xc227,%eax,%eax
    1b91:	89 44 24 08          	mov    %eax,0x8(%rsp)
    1b95:	8b 44 24 0c          	mov    0xc(%rsp),%eax
    1b99:	69 c0 5e 3f 00 00    	imul   $0x3f5e,%eax,%eax
    1b9f:	89 44 24 0c          	mov    %eax,0xc(%rsp)
    1ba3:	8b 44 24 10          	mov    0x10(%rsp),%eax
    1ba7:	69 c0 ff b9 00 00    	imul   $0xb9ff,%eax,%eax
    1bad:	89 44 24 10          	mov    %eax,0x10(%rsp)
    1bb1:	8b 44 24 24          	mov    0x24(%rsp),%eax
    1bb5:	69 c0 8f 25 00 00    	imul   $0x258f,%eax,%eax
    1bbb:	89 44 24 24          	mov    %eax,0x24(%rsp)
    1bbf:	8b 44 24 20          	mov    0x20(%rsp),%eax
    1bc3:	69 c0 1e a7 00 00    	imul   $0xa71e,%eax,%eax
    1bc9:	89 44 24 20          	mov    %eax,0x20(%rsp)
    1bcd:	8b 44 24 08          	mov    0x8(%rsp),%eax
    1bd1:	69 c0 6d f4 00 00    	imul   $0xf46d,%eax,%eax
    1bd7:	89 44 24 08          	mov    %eax,0x8(%rsp)
    1bdb:	8b 44 24 14          	mov    0x14(%rsp),%eax
    1bdf:	69 c0 32 4c 00 00    	imul   $0x4c32,%eax,%eax
    1be5:	89 44 24 14          	mov    %eax,0x14(%rsp)
    1be9:	8b 44 24 04          	mov    0x4(%rsp),%eax
    1bed:	69 c0 cf 74 00 00    	imul   $0x74cf,%eax,%eax
    1bf3:	89 44 24 04          	mov    %eax,0x4(%rsp)
    1bf7:	8b 44 24 18          	mov    0x18(%rsp),%eax
    1bfb:	69 c0 43 51 00 00    	imul   $0x5143,%eax,%eax
    1c01:	89 44 24 18          	mov    %eax,0x18(%rsp)
    1c05:	8b 44 24 18          	mov    0x18(%rsp),%eax
    1c09:	69 c0 74 7f 00 00    	imul   $0x7f74,%eax,%eax
    1c0f:	89 44 24 18          	mov    %eax,0x18(%rsp)
    1c13:	8b 44 24 0c          	mov    0xc(%rsp),%eax
    1c17:	69 c0 85 b6 00 00    	imul   $0xb685,%eax,%eax
    1c1d:	89 44 24 0c          	mov    %eax,0xc(%rsp)
    1c21:	8b 44 24 1c          	mov    0x1c(%rsp),%eax
    1c25:	69 c0 44 e5 00 00    	imul   $0xe544,%eax,%eax
    1c2b:	89 44 24 1c          	mov    %eax,0x1c(%rsp)
    1c2f:	8b 04 24             	mov    (%rsp),%eax
    1c32:	69 c0 0b 95 00 00    	imul   $0x950b,%eax,%eax
    1c38:	89 04 24             	mov    %eax,(%rsp)
    1c3b:	8b 44 24 04          	mov    0x4(%rsp),%eax
    1c3f:	69 c0 13 d8 00 00    	imul   $0xd813,%eax,%eax
    1c45:	89 44 24 04          	mov    %eax,0x4(%rsp)
    1c49:	8b 04 24             	mov    (%rsp),%eax
    1c4c:	69 c0 d2 ed 00 00    	imul   $0xedd2,%eax,%eax
    1c52:	89 04 24             	mov    %eax,(%rsp)
    1c55:	8b 44 24 0c          	mov    0xc(%rsp),%eax
    1c59:	69 c0 24 52 00 00    	imul   $0x5224,%eax,%eax
    1c5f:	89 44 24 0c          	mov    %eax,0xc(%rsp)
    1c63:	8b 44 24 10          	mov    0x10(%rsp),%eax
    1c67:	69 c0 9a 4f 00 00    	imul   $0x4f9a,%eax,%eax
    1c6d:	89 44 24 10          	mov    %eax,0x10(%rsp)
    1c71:	8b 44 24 14          	mov    0x14(%rsp),%eax
    1c75:	69 c0 d5 73 00 00    	imul   $0x73d5,%eax,%eax
    1c7b:	89 44 24 14          	mov    %eax,0x14(%rsp)
    1c7f:	8b 44 24 20          	mov    0x20(%rsp),%eax
    1c83:	69 c0 cd ff 00 00    	imul   $0xffcd,%eax,%eax
    1c89:	89 44 24 20          	mov    %eax,0x20(%rsp)
    1c8d:	8b 44 24 1c          	mov    0x1c(%rsp),%eax
    1c91:	69 c0 3c 70 00 00    	imul   $0x703c,%eax,%eax
    1c97:	89 44 24 1c          	mov    %eax,0x1c(%rsp)
    1c9b:	8b 44 24 04          	mov    0x4(%rsp),%eax
    1c9f:	69 c0 50 eb 00 00    	imul   $0xeb50,%eax,%eax
    1ca5:	89 44 24 04          	mov    %eax,0x4(%rsp)
    1ca9:	8b 04 24             	mov    (%rsp),%eax
    1cac:	69 c0 dd 3a 00 00    	imul   $0x3add,%eax,%eax
    1cb2:	89 04 24             	mov    %eax,(%rsp)
    1cb5:	8b 44 24 14          	mov    0x14(%rsp),%eax
    1cb9:	69 c0 62 df 00 00    	imul   $0xdf62,%eax,%eax
    1cbf:	89 44 24 14          	mov    %eax,0x14(%rsp)
    1cc3:	8b 44 24 0c          	mov    0xc(%rsp),%eax
    1cc7:	69 c0 fc 25 00 00    	imul   $0x25fc,%eax,%eax
    1ccd:	89 44 24 0c          	mov    %eax,0xc(%rsp)
    1cd1:	8b 44 24 10          	mov    0x10(%rsp),%eax
    1cd5:	69 c0 7d 9c 00 00    	imul   $0x9c7d,%eax,%eax
    1cdb:	89 44 24 10          	mov    %eax,0x10(%rsp)
    1cdf:	8b 04 24             	mov    (%rsp),%eax
    1ce2:	69 c0 83 29 00 00    	imul   $0x2983,%eax,%eax
    1ce8:	89 04 24             	mov    %eax,(%rsp)
    1ceb:	8b 44 24 04          	mov    0x4(%rsp),%eax
    1cef:	69 c0 5d 07 00 00    	imul   $0x75d,%eax,%eax
    1cf5:	89 44 24 04          	mov    %eax,0x4(%rsp)
    1cf9:	8b 44 24 08          	mov    0x8(%rsp),%eax
    1cfd:	69 c0 9d 56 00 00    	imul   $0x569d,%eax,%eax
    1d03:	89 44 24 08          	mov    %eax,0x8(%rsp)
    1d07:	8b 44 24 08          	mov    0x8(%rsp),%eax
    1d0b:	69 c0 1b 16 00 00    	imul   $0x161b,%eax,%eax
    1d11:	89 44 24 08          	mov    %eax,0x8(%rsp)
    1d15:	8b 44 24 18          	mov    0x18(%rsp),%eax
    1d19:	69 c0 89 63 00 00    	imul   $0x6389,%eax,%eax
    1d1f:	89 44 24 18          	mov    %eax,0x18(%rsp)
    1d23:	8b 04 24             	mov    (%rsp),%eax
    1d26:	69 c0 42 75 00 00    	imul   $0x7542,%eax,%eax
    1d2c:	89 04 24             	mov    %eax,(%rsp)
    1d2f:	8b 44 24 20          	mov    0x20(%rsp),%eax
    1d33:	69 c0 e7 b3 00 00    	imul   $0xb3e7,%eax,%eax
    1d39:	89 44 24 20          	mov    %eax,0x20(%rsp)
    1d3d:	b8 00 00 00 00       	mov    $0x0,%eax
    1d42:	ba 00 00 00 00       	mov    $0x0,%edx
    1d47:	83 f8 09             	cmp    $0x9,%eax
    1d4a:	77 0c                	ja     1d58 <scramble+0x4ac>
    1d4c:	89 c1                	mov    %eax,%ecx
    1d4e:	8b 0c 8c             	mov    (%rsp,%rcx,4),%ecx
    1d51:	01 ca                	add    %ecx,%edx
    1d53:	83 c0 01             	add    $0x1,%eax
    1d56:	eb ef                	jmp    1d47 <scramble+0x49b>
    1d58:	48 8b 44 24 28       	mov    0x28(%rsp),%rax
    1d5d:	64 48 33 04 25 28 00 	xor    %fs:0x28,%rax
    1d64:	00 00 
    1d66:	75 07                	jne    1d6f <scramble+0x4c3>
    1d68:	89 d0                	mov    %edx,%eax
    1d6a:	48 83 c4 38          	add    $0x38,%rsp
    1d6e:	c3                   	ret    
    1d6f:	e8 1c f5 ff ff       	call   1290 <__stack_chk_fail@plt>

0000000000001d74 <getbuf>:
    1d74:	f3 0f 1e fa          	endbr64 
    1d78:	48 83 ec 38          	sub    $0x38,%rsp
    1d7c:	48 89 e7             	mov    %rsp,%rdi
    1d7f:	e8 b5 02 00 00       	call   2039 <Gets>
    1d84:	b8 01 00 00 00       	mov    $0x1,%eax
    1d89:	48 83 c4 38          	add    $0x38,%rsp
    1d8d:	c3                   	ret    

0000000000001d8e <touch1>:
    1d8e:	f3 0f 1e fa          	endbr64 
    1d92:	50                   	push   %rax
    1d93:	58                   	pop    %rax
    1d94:	48 83 ec 08          	sub    $0x8,%rsp
    1d98:	c7 05 3a 56 00 00 01 	movl   $0x1,0x563a(%rip)        # 73dc <vlevel>
    1d9f:	00 00 00 
    1da2:	48 8d 3d e7 24 00 00 	lea    0x24e7(%rip),%rdi        # 4290 <_IO_stdin_used+0x290>
    1da9:	e8 c2 f4 ff ff       	call   1270 <puts@plt>
    1dae:	bf 01 00 00 00       	mov    $0x1,%edi
    1db3:	e8 f4 04 00 00       	call   22ac <validate>
    1db8:	bf 00 00 00 00       	mov    $0x0,%edi
    1dbd:	e8 fe f5 ff ff       	call   13c0 <exit@plt>

0000000000001dc2 <touch2>:
    1dc2:	f3 0f 1e fa          	endbr64 
    1dc6:	50                   	push   %rax
    1dc7:	58                   	pop    %rax
    1dc8:	48 83 ec 08          	sub    $0x8,%rsp
    1dcc:	89 fa                	mov    %edi,%edx
    1dce:	c7 05 04 56 00 00 02 	movl   $0x2,0x5604(%rip)        # 73dc <vlevel>
    1dd5:	00 00 00 
    1dd8:	39 3d 06 56 00 00    	cmp    %edi,0x5606(%rip)        # 73e4 <cookie>
    1dde:	74 2a                	je     1e0a <touch2+0x48>
    1de0:	48 8d 35 f9 24 00 00 	lea    0x24f9(%rip),%rsi        # 42e0 <_IO_stdin_used+0x2e0>
    1de7:	bf 01 00 00 00       	mov    $0x1,%edi
    1dec:	b8 00 00 00 00       	mov    $0x0,%eax
    1df1:	e8 8a f5 ff ff       	call   1380 <__printf_chk@plt>
    1df6:	bf 02 00 00 00       	mov    $0x2,%edi
    1dfb:	e8 80 05 00 00       	call   2380 <fail>
    1e00:	bf 00 00 00 00       	mov    $0x0,%edi
    1e05:	e8 b6 f5 ff ff       	call   13c0 <exit@plt>
    1e0a:	48 8d 35 a7 24 00 00 	lea    0x24a7(%rip),%rsi        # 42b8 <_IO_stdin_used+0x2b8>
    1e11:	bf 01 00 00 00       	mov    $0x1,%edi
    1e16:	b8 00 00 00 00       	mov    $0x0,%eax
    1e1b:	e8 60 f5 ff ff       	call   1380 <__printf_chk@plt>
    1e20:	bf 02 00 00 00       	mov    $0x2,%edi
    1e25:	e8 82 04 00 00       	call   22ac <validate>
    1e2a:	eb d4                	jmp    1e00 <touch2+0x3e>

0000000000001e2c <hexmatch>:
    1e2c:	f3 0f 1e fa          	endbr64 
    1e30:	41 55                	push   %r13
    1e32:	41 54                	push   %r12
    1e34:	55                   	push   %rbp
    1e35:	53                   	push   %rbx
    1e36:	48 81 ec 88 00 00 00 	sub    $0x88,%rsp
    1e3d:	89 fd                	mov    %edi,%ebp
    1e3f:	48 89 f3             	mov    %rsi,%rbx
    1e42:	41 bc 28 00 00 00    	mov    $0x28,%r12d
    1e48:	64 49 8b 04 24       	mov    %fs:(%r12),%rax
    1e4d:	48 89 44 24 78       	mov    %rax,0x78(%rsp)
    1e52:	31 c0                	xor    %eax,%eax
    1e54:	e8 f7 f4 ff ff       	call   1350 <random@plt>
    1e59:	48 89 c1             	mov    %rax,%rcx
    1e5c:	48 ba 0b d7 a3 70 3d 	movabs $0xa3d70a3d70a3d70b,%rdx
    1e63:	0a d7 a3 
    1e66:	48 f7 ea             	imul   %rdx
    1e69:	48 01 ca             	add    %rcx,%rdx
    1e6c:	48 c1 fa 06          	sar    $0x6,%rdx
    1e70:	48 89 c8             	mov    %rcx,%rax
    1e73:	48 c1 f8 3f          	sar    $0x3f,%rax
    1e77:	48 29 c2             	sub    %rax,%rdx
    1e7a:	48 8d 04 92          	lea    (%rdx,%rdx,4),%rax
    1e7e:	48 8d 04 80          	lea    (%rax,%rax,4),%rax
    1e82:	48 c1 e0 02          	shl    $0x2,%rax
    1e86:	48 29 c1             	sub    %rax,%rcx
    1e89:	4c 8d 2c 0c          	lea    (%rsp,%rcx,1),%r13
    1e8d:	41 89 e8             	mov    %ebp,%r8d
    1e90:	48 8d 0d 16 24 00 00 	lea    0x2416(%rip),%rcx        # 42ad <_IO_stdin_used+0x2ad>
    1e97:	48 c7 c2 ff ff ff ff 	mov    $0xffffffffffffffff,%rdx
    1e9e:	be 01 00 00 00       	mov    $0x1,%esi
    1ea3:	4c 89 ef             	mov    %r13,%rdi
    1ea6:	b8 00 00 00 00       	mov    $0x0,%eax
    1eab:	e8 50 f5 ff ff       	call   1400 <__sprintf_chk@plt>
    1eb0:	ba 09 00 00 00       	mov    $0x9,%edx
    1eb5:	4c 89 ee             	mov    %r13,%rsi
    1eb8:	48 89 df             	mov    %rbx,%rdi
    1ebb:	e8 90 f3 ff ff       	call   1250 <strncmp@plt>
    1ec0:	85 c0                	test   %eax,%eax
    1ec2:	0f 94 c0             	sete   %al
    1ec5:	48 8b 5c 24 78       	mov    0x78(%rsp),%rbx
    1eca:	64 49 33 1c 24       	xor    %fs:(%r12),%rbx
    1ecf:	75 11                	jne    1ee2 <hexmatch+0xb6>
    1ed1:	0f b6 c0             	movzbl %al,%eax
    1ed4:	48 81 c4 88 00 00 00 	add    $0x88,%rsp
    1edb:	5b                   	pop    %rbx
    1edc:	5d                   	pop    %rbp
    1edd:	41 5c                	pop    %r12
    1edf:	41 5d                	pop    %r13
    1ee1:	c3                   	ret    
    1ee2:	e8 a9 f3 ff ff       	call   1290 <__stack_chk_fail@plt>

0000000000001ee7 <touch3>:
    1ee7:	f3 0f 1e fa          	endbr64 
    1eeb:	53                   	push   %rbx
    1eec:	48 89 fb             	mov    %rdi,%rbx
    1eef:	c7 05 e3 54 00 00 03 	movl   $0x3,0x54e3(%rip)        # 73dc <vlevel>
    1ef6:	00 00 00 
    1ef9:	48 89 fe             	mov    %rdi,%rsi
    1efc:	8b 3d e2 54 00 00    	mov    0x54e2(%rip),%edi        # 73e4 <cookie>
    1f02:	e8 25 ff ff ff       	call   1e2c <hexmatch>
    1f07:	85 c0                	test   %eax,%eax
    1f09:	74 2d                	je     1f38 <touch3+0x51>
    1f0b:	48 89 da             	mov    %rbx,%rdx
    1f0e:	48 8d 35 f3 23 00 00 	lea    0x23f3(%rip),%rsi        # 4308 <_IO_stdin_used+0x308>
    1f15:	bf 01 00 00 00       	mov    $0x1,%edi
    1f1a:	b8 00 00 00 00       	mov    $0x0,%eax
    1f1f:	e8 5c f4 ff ff       	call   1380 <__printf_chk@plt>
    1f24:	bf 03 00 00 00       	mov    $0x3,%edi
    1f29:	e8 7e 03 00 00       	call   22ac <validate>
    1f2e:	bf 00 00 00 00       	mov    $0x0,%edi
    1f33:	e8 88 f4 ff ff       	call   13c0 <exit@plt>
    1f38:	48 89 da             	mov    %rbx,%rdx
    1f3b:	48 8d 35 ee 23 00 00 	lea    0x23ee(%rip),%rsi        # 4330 <_IO_stdin_used+0x330>
    1f42:	bf 01 00 00 00       	mov    $0x1,%edi
    1f47:	b8 00 00 00 00       	mov    $0x0,%eax
    1f4c:	e8 2f f4 ff ff       	call   1380 <__printf_chk@plt>
    1f51:	bf 03 00 00 00       	mov    $0x3,%edi
    1f56:	e8 25 04 00 00       	call   2380 <fail>
    1f5b:	eb d1                	jmp    1f2e <touch3+0x47>

0000000000001f5d <test>:
    1f5d:	f3 0f 1e fa          	endbr64 
    1f61:	48 83 ec 08          	sub    $0x8,%rsp
    1f65:	b8 00 00 00 00       	mov    $0x0,%eax
    1f6a:	e8 05 fe ff ff       	call   1d74 <getbuf>
    1f6f:	89 c2                	mov    %eax,%edx
    1f71:	48 8d 35 e0 23 00 00 	lea    0x23e0(%rip),%rsi        # 4358 <_IO_stdin_used+0x358>
    1f78:	bf 01 00 00 00       	mov    $0x1,%edi
    1f7d:	b8 00 00 00 00       	mov    $0x0,%eax
    1f82:	e8 f9 f3 ff ff       	call   1380 <__printf_chk@plt>
    1f87:	48 83 c4 08          	add    $0x8,%rsp
    1f8b:	c3                   	ret    

0000000000001f8c <save_char>:
    1f8c:	8b 05 72 60 00 00    	mov    0x6072(%rip),%eax        # 8004 <gets_cnt>
    1f92:	3d ff 03 00 00       	cmp    $0x3ff,%eax
    1f97:	7f 4a                	jg     1fe3 <save_char+0x57>
    1f99:	89 f9                	mov    %edi,%ecx
    1f9b:	c0 e9 04             	shr    $0x4,%cl
    1f9e:	8d 14 40             	lea    (%rax,%rax,2),%edx
    1fa1:	4c 8d 05 d8 26 00 00 	lea    0x26d8(%rip),%r8        # 4680 <trans_char>
    1fa8:	83 e1 0f             	and    $0xf,%ecx
    1fab:	45 0f b6 0c 08       	movzbl (%r8,%rcx,1),%r9d
    1fb0:	48 8d 0d 49 54 00 00 	lea    0x5449(%rip),%rcx        # 7400 <gets_buf>
    1fb7:	48 63 f2             	movslq %edx,%rsi
    1fba:	44 88 0c 31          	mov    %r9b,(%rcx,%rsi,1)
    1fbe:	8d 72 01             	lea    0x1(%rdx),%esi
    1fc1:	83 e7 0f             	and    $0xf,%edi
    1fc4:	41 0f b6 3c 38       	movzbl (%r8,%rdi,1),%edi
    1fc9:	48 63 f6             	movslq %esi,%rsi
    1fcc:	40 88 3c 31          	mov    %dil,(%rcx,%rsi,1)
    1fd0:	83 c2 02             	add    $0x2,%edx
    1fd3:	48 63 d2             	movslq %edx,%rdx
    1fd6:	c6 04 11 20          	movb   $0x20,(%rcx,%rdx,1)
    1fda:	83 c0 01             	add    $0x1,%eax
    1fdd:	89 05 21 60 00 00    	mov    %eax,0x6021(%rip)        # 8004 <gets_cnt>
    1fe3:	c3                   	ret    

0000000000001fe4 <save_term>:
    1fe4:	8b 05 1a 60 00 00    	mov    0x601a(%rip),%eax        # 8004 <gets_cnt>
    1fea:	8d 04 40             	lea    (%rax,%rax,2),%eax
    1fed:	48 98                	cltq   
    1fef:	48 8d 15 0a 54 00 00 	lea    0x540a(%rip),%rdx        # 7400 <gets_buf>
    1ff6:	c6 04 02 00          	movb   $0x0,(%rdx,%rax,1)
    1ffa:	c3                   	ret    

0000000000001ffb <check_fail>:
    1ffb:	f3 0f 1e fa          	endbr64 
    1fff:	50                   	push   %rax
    2000:	58                   	pop    %rax
    2001:	48 83 ec 08          	sub    $0x8,%rsp
    2005:	0f be 15 fc 5f 00 00 	movsbl 0x5ffc(%rip),%edx        # 8008 <target_prefix>
    200c:	4c 8d 05 ed 53 00 00 	lea    0x53ed(%rip),%r8        # 7400 <gets_buf>
    2013:	8b 0d bf 53 00 00    	mov    0x53bf(%rip),%ecx        # 73d8 <check_level>
    2019:	48 8d 35 5b 23 00 00 	lea    0x235b(%rip),%rsi        # 437b <_IO_stdin_used+0x37b>
    2020:	bf 01 00 00 00       	mov    $0x1,%edi
    2025:	b8 00 00 00 00       	mov    $0x0,%eax
    202a:	e8 51 f3 ff ff       	call   1380 <__printf_chk@plt>
    202f:	bf 01 00 00 00       	mov    $0x1,%edi
    2034:	e8 87 f3 ff ff       	call   13c0 <exit@plt>

0000000000002039 <Gets>:
    2039:	f3 0f 1e fa          	endbr64 
    203d:	41 54                	push   %r12
    203f:	55                   	push   %rbp
    2040:	53                   	push   %rbx
    2041:	49 89 fc             	mov    %rdi,%r12
    2044:	c7 05 b6 5f 00 00 00 	movl   $0x0,0x5fb6(%rip)        # 8004 <gets_cnt>
    204b:	00 00 00 
    204e:	48 89 fb             	mov    %rdi,%rbx
    2051:	48 8b 3d 78 53 00 00 	mov    0x5378(%rip),%rdi        # 73d0 <infile>
    2058:	e8 93 f3 ff ff       	call   13f0 <getc@plt>
    205d:	83 f8 ff             	cmp    $0xffffffff,%eax
    2060:	74 18                	je     207a <Gets+0x41>
    2062:	83 f8 0a             	cmp    $0xa,%eax
    2065:	74 13                	je     207a <Gets+0x41>
    2067:	48 8d 6b 01          	lea    0x1(%rbx),%rbp
    206b:	88 03                	mov    %al,(%rbx)
    206d:	0f b6 f8             	movzbl %al,%edi
    2070:	e8 17 ff ff ff       	call   1f8c <save_char>
    2075:	48 89 eb             	mov    %rbp,%rbx
    2078:	eb d7                	jmp    2051 <Gets+0x18>
    207a:	c6 03 00             	movb   $0x0,(%rbx)
    207d:	b8 00 00 00 00       	mov    $0x0,%eax
    2082:	e8 5d ff ff ff       	call   1fe4 <save_term>
    2087:	4c 89 e0             	mov    %r12,%rax
    208a:	5b                   	pop    %rbx
    208b:	5d                   	pop    %rbp
    208c:	41 5c                	pop    %r12
    208e:	c3                   	ret    

000000000000208f <notify_server>:
    208f:	f3 0f 1e fa          	endbr64 
    2093:	55                   	push   %rbp
    2094:	53                   	push   %rbx
    2095:	4c 8d 9c 24 00 c0 ff 	lea    -0x4000(%rsp),%r11
    209c:	ff 
    209d:	48 81 ec 00 10 00 00 	sub    $0x1000,%rsp
    20a4:	48 83 0c 24 00       	orq    $0x0,(%rsp)
    20a9:	4c 39 dc             	cmp    %r11,%rsp
    20ac:	75 ef                	jne    209d <notify_server+0xe>
    20ae:	48 83 ec 18          	sub    $0x18,%rsp
    20b2:	64 48 8b 04 25 28 00 	mov    %fs:0x28,%rax
    20b9:	00 00 
    20bb:	48 89 84 24 08 40 00 	mov    %rax,0x4008(%rsp)
    20c2:	00 
    20c3:	31 c0                	xor    %eax,%eax
    20c5:	83 3d 1c 53 00 00 00 	cmpl   $0x0,0x531c(%rip)        # 73e8 <is_checker>
    20cc:	0f 85 26 01 00 00    	jne    21f8 <notify_server+0x169>
    20d2:	89 fb                	mov    %edi,%ebx
    20d4:	81 3d 26 5f 00 00 9c 	cmpl   $0x1f9c,0x5f26(%rip)        # 8004 <gets_cnt>
    20db:	1f 00 00 
    20de:	7f 18                	jg     20f8 <notify_server+0x69>
    20e0:	0f be 05 21 5f 00 00 	movsbl 0x5f21(%rip),%eax        # 8008 <target_prefix>
    20e7:	83 3d 7a 52 00 00 00 	cmpl   $0x0,0x527a(%rip)        # 7368 <notify>
    20ee:	74 23                	je     2113 <notify_server+0x84>
    20f0:	8b 15 ea 52 00 00    	mov    0x52ea(%rip),%edx        # 73e0 <authkey>
    20f6:	eb 20                	jmp    2118 <notify_server+0x89>
    20f8:	48 8d 35 b1 23 00 00 	lea    0x23b1(%rip),%rsi        # 44b0 <_IO_stdin_used+0x4b0>
    20ff:	bf 01 00 00 00       	mov    $0x1,%edi
    2104:	e8 77 f2 ff ff       	call   1380 <__printf_chk@plt>
    2109:	bf 01 00 00 00       	mov    $0x1,%edi
    210e:	e8 ad f2 ff ff       	call   13c0 <exit@plt>
    2113:	ba ff ff ff ff       	mov    $0xffffffff,%edx
    2118:	85 db                	test   %ebx,%ebx
    211a:	0f 84 98 00 00 00    	je     21b8 <notify_server+0x129>
    2120:	48 8d 2d 6f 22 00 00 	lea    0x226f(%rip),%rbp        # 4396 <_IO_stdin_used+0x396>
    2127:	48 89 e7             	mov    %rsp,%rdi
    212a:	48 8d 0d cf 52 00 00 	lea    0x52cf(%rip),%rcx        # 7400 <gets_buf>
    2131:	51                   	push   %rcx
    2132:	56                   	push   %rsi
    2133:	50                   	push   %rax
    2134:	52                   	push   %rdx
    2135:	49 89 e9             	mov    %rbp,%r9
    2138:	44 8b 05 d1 4e 00 00 	mov    0x4ed1(%rip),%r8d        # 7010 <target_id>
    213f:	48 8d 0d 55 22 00 00 	lea    0x2255(%rip),%rcx        # 439b <_IO_stdin_used+0x39b>
    2146:	ba 00 20 00 00       	mov    $0x2000,%edx
    214b:	be 01 00 00 00       	mov    $0x1,%esi
    2150:	b8 00 00 00 00       	mov    $0x0,%eax
    2155:	e8 a6 f2 ff ff       	call   1400 <__sprintf_chk@plt>
    215a:	48 83 c4 20          	add    $0x20,%rsp
    215e:	83 3d 03 52 00 00 00 	cmpl   $0x0,0x5203(%rip)        # 7368 <notify>
    2165:	0f 84 ae 00 00 00    	je     2219 <notify_server+0x18a>
    216b:	85 db                	test   %ebx,%ebx
    216d:	74 7d                	je     21ec <notify_server+0x15d>
    216f:	48 89 e1             	mov    %rsp,%rcx
    2172:	4c 8d 8c 24 00 20 00 	lea    0x2000(%rsp),%r9
    2179:	00 
    217a:	41 b8 00 00 00 00    	mov    $0x0,%r8d
    2180:	48 8b 15 a1 4e 00 00 	mov    0x4ea1(%rip),%rdx        # 7028 <lab>
    2187:	48 8b 35 a2 4e 00 00 	mov    0x4ea2(%rip),%rsi        # 7030 <course>
    218e:	48 8b 3d 8b 4e 00 00 	mov    0x4e8b(%rip),%rdi        # 7020 <user_id>
    2195:	e8 d9 11 00 00       	call   3373 <driver_post>
    219a:	85 c0                	test   %eax,%eax
    219c:	78 26                	js     21c4 <notify_server+0x135>
    219e:	48 8d 3d 3b 23 00 00 	lea    0x233b(%rip),%rdi        # 44e0 <_IO_stdin_used+0x4e0>
    21a5:	e8 c6 f0 ff ff       	call   1270 <puts@plt>
    21aa:	48 8d 3d 12 22 00 00 	lea    0x2212(%rip),%rdi        # 43c3 <_IO_stdin_used+0x3c3>
    21b1:	e8 ba f0 ff ff       	call   1270 <puts@plt>
    21b6:	eb 40                	jmp    21f8 <notify_server+0x169>
    21b8:	48 8d 2d d2 21 00 00 	lea    0x21d2(%rip),%rbp        # 4391 <_IO_stdin_used+0x391>
    21bf:	e9 63 ff ff ff       	jmp    2127 <notify_server+0x98>
    21c4:	48 8d 94 24 00 20 00 	lea    0x2000(%rsp),%rdx
    21cb:	00 
    21cc:	48 8d 35 e4 21 00 00 	lea    0x21e4(%rip),%rsi        # 43b7 <_IO_stdin_used+0x3b7>
    21d3:	bf 01 00 00 00       	mov    $0x1,%edi
    21d8:	b8 00 00 00 00       	mov    $0x0,%eax
    21dd:	e8 9e f1 ff ff       	call   1380 <__printf_chk@plt>
    21e2:	bf 01 00 00 00       	mov    $0x1,%edi
    21e7:	e8 d4 f1 ff ff       	call   13c0 <exit@plt>
    21ec:	48 8d 3d da 21 00 00 	lea    0x21da(%rip),%rdi        # 43cd <_IO_stdin_used+0x3cd>
    21f3:	e8 78 f0 ff ff       	call   1270 <puts@plt>
    21f8:	48 8b 84 24 08 40 00 	mov    0x4008(%rsp),%rax
    21ff:	00 
    2200:	64 48 33 04 25 28 00 	xor    %fs:0x28,%rax
    2207:	00 00 
    2209:	0f 85 98 00 00 00    	jne    22a7 <notify_server+0x218>
    220f:	48 81 c4 18 40 00 00 	add    $0x4018,%rsp
    2216:	5b                   	pop    %rbx
    2217:	5d                   	pop    %rbp
    2218:	c3                   	ret    
    2219:	48 89 ea             	mov    %rbp,%rdx
    221c:	48 8d 35 f5 22 00 00 	lea    0x22f5(%rip),%rsi        # 4518 <_IO_stdin_used+0x518>
    2223:	bf 01 00 00 00       	mov    $0x1,%edi
    2228:	b8 00 00 00 00       	mov    $0x0,%eax
    222d:	e8 4e f1 ff ff       	call   1380 <__printf_chk@plt>
    2232:	48 8b 15 e7 4d 00 00 	mov    0x4de7(%rip),%rdx        # 7020 <user_id>
    2239:	48 8d 35 94 21 00 00 	lea    0x2194(%rip),%rsi        # 43d4 <_IO_stdin_used+0x3d4>
    2240:	bf 01 00 00 00       	mov    $0x1,%edi
    2245:	b8 00 00 00 00       	mov    $0x0,%eax
    224a:	e8 31 f1 ff ff       	call   1380 <__printf_chk@plt>
    224f:	48 8b 15 da 4d 00 00 	mov    0x4dda(%rip),%rdx        # 7030 <course>
    2256:	48 8d 35 84 21 00 00 	lea    0x2184(%rip),%rsi        # 43e1 <_IO_stdin_used+0x3e1>
    225d:	bf 01 00 00 00       	mov    $0x1,%edi
    2262:	b8 00 00 00 00       	mov    $0x0,%eax
    2267:	e8 14 f1 ff ff       	call   1380 <__printf_chk@plt>
    226c:	48 8b 15 b5 4d 00 00 	mov    0x4db5(%rip),%rdx        # 7028 <lab>
    2273:	48 8d 35 73 21 00 00 	lea    0x2173(%rip),%rsi        # 43ed <_IO_stdin_used+0x3ed>
    227a:	bf 01 00 00 00       	mov    $0x1,%edi
    227f:	b8 00 00 00 00       	mov    $0x0,%eax
    2284:	e8 f7 f0 ff ff       	call   1380 <__printf_chk@plt>
    2289:	48 89 e2             	mov    %rsp,%rdx
    228c:	48 8d 35 63 21 00 00 	lea    0x2163(%rip),%rsi        # 43f6 <_IO_stdin_used+0x3f6>
    2293:	bf 01 00 00 00       	mov    $0x1,%edi
    2298:	b8 00 00 00 00       	mov    $0x0,%eax
    229d:	e8 de f0 ff ff       	call   1380 <__printf_chk@plt>
    22a2:	e9 51 ff ff ff       	jmp    21f8 <notify_server+0x169>
    22a7:	e8 e4 ef ff ff       	call   1290 <__stack_chk_fail@plt>

00000000000022ac <validate>:
    22ac:	f3 0f 1e fa          	endbr64 
    22b0:	53                   	push   %rbx
    22b1:	89 fb                	mov    %edi,%ebx
    22b3:	83 3d 2e 51 00 00 00 	cmpl   $0x0,0x512e(%rip)        # 73e8 <is_checker>
    22ba:	74 72                	je     232e <validate+0x82>
    22bc:	39 3d 1a 51 00 00    	cmp    %edi,0x511a(%rip)        # 73dc <vlevel>
    22c2:	75 32                	jne    22f6 <validate+0x4a>
    22c4:	8b 15 0e 51 00 00    	mov    0x510e(%rip),%edx        # 73d8 <check_level>
    22ca:	39 fa                	cmp    %edi,%edx
    22cc:	75 3e                	jne    230c <validate+0x60>
    22ce:	0f be 15 33 5d 00 00 	movsbl 0x5d33(%rip),%edx        # 8008 <target_prefix>
    22d5:	4c 8d 05 24 51 00 00 	lea    0x5124(%rip),%r8        # 7400 <gets_buf>
    22dc:	89 f9                	mov    %edi,%ecx
    22de:	48 8d 35 3b 21 00 00 	lea    0x213b(%rip),%rsi        # 4420 <_IO_stdin_used+0x420>
    22e5:	bf 01 00 00 00       	mov    $0x1,%edi
    22ea:	b8 00 00 00 00       	mov    $0x0,%eax
    22ef:	e8 8c f0 ff ff       	call   1380 <__printf_chk@plt>
    22f4:	5b                   	pop    %rbx
    22f5:	c3                   	ret    
    22f6:	48 8d 3d 05 21 00 00 	lea    0x2105(%rip),%rdi        # 4402 <_IO_stdin_used+0x402>
    22fd:	e8 6e ef ff ff       	call   1270 <puts@plt>
    2302:	b8 00 00 00 00       	mov    $0x0,%eax
    2307:	e8 ef fc ff ff       	call   1ffb <check_fail>
    230c:	89 f9                	mov    %edi,%ecx
    230e:	48 8d 35 2b 22 00 00 	lea    0x222b(%rip),%rsi        # 4540 <_IO_stdin_used+0x540>
    2315:	bf 01 00 00 00       	mov    $0x1,%edi
    231a:	b8 00 00 00 00       	mov    $0x0,%eax
    231f:	e8 5c f0 ff ff       	call   1380 <__printf_chk@plt>
    2324:	b8 00 00 00 00       	mov    $0x0,%eax
    2329:	e8 cd fc ff ff       	call   1ffb <check_fail>
    232e:	39 3d a8 50 00 00    	cmp    %edi,0x50a8(%rip)        # 73dc <vlevel>
    2334:	74 1a                	je     2350 <validate+0xa4>
    2336:	48 8d 3d c5 20 00 00 	lea    0x20c5(%rip),%rdi        # 4402 <_IO_stdin_used+0x402>
    233d:	e8 2e ef ff ff       	call   1270 <puts@plt>
    2342:	89 de                	mov    %ebx,%esi
    2344:	bf 00 00 00 00       	mov    $0x0,%edi
    2349:	e8 41 fd ff ff       	call   208f <notify_server>
    234e:	eb a4                	jmp    22f4 <validate+0x48>
    2350:	0f be 0d b1 5c 00 00 	movsbl 0x5cb1(%rip),%ecx        # 8008 <target_prefix>
    2357:	89 fa                	mov    %edi,%edx
    2359:	48 8d 35 08 22 00 00 	lea    0x2208(%rip),%rsi        # 4568 <_IO_stdin_used+0x568>
    2360:	bf 01 00 00 00       	mov    $0x1,%edi
    2365:	b8 00 00 00 00       	mov    $0x0,%eax
    236a:	e8 11 f0 ff ff       	call   1380 <__printf_chk@plt>
    236f:	89 de                	mov    %ebx,%esi
    2371:	bf 01 00 00 00       	mov    $0x1,%edi
    2376:	e8 14 fd ff ff       	call   208f <notify_server>
    237b:	e9 74 ff ff ff       	jmp    22f4 <validate+0x48>

0000000000002380 <fail>:
    2380:	f3 0f 1e fa          	endbr64 
    2384:	48 83 ec 08          	sub    $0x8,%rsp
    2388:	83 3d 59 50 00 00 00 	cmpl   $0x0,0x5059(%rip)        # 73e8 <is_checker>
    238f:	75 11                	jne    23a2 <fail+0x22>
    2391:	89 fe                	mov    %edi,%esi
    2393:	bf 00 00 00 00       	mov    $0x0,%edi
    2398:	e8 f2 fc ff ff       	call   208f <notify_server>
    239d:	48 83 c4 08          	add    $0x8,%rsp
    23a1:	c3                   	ret    
    23a2:	b8 00 00 00 00       	mov    $0x0,%eax
    23a7:	e8 4f fc ff ff       	call   1ffb <check_fail>

00000000000023ac <bushandler>:
    23ac:	f3 0f 1e fa          	endbr64 
    23b0:	50                   	push   %rax
    23b1:	58                   	pop    %rax
    23b2:	48 83 ec 08          	sub    $0x8,%rsp
    23b6:	83 3d 2b 50 00 00 00 	cmpl   $0x0,0x502b(%rip)        # 73e8 <is_checker>
    23bd:	74 16                	je     23d5 <bushandler+0x29>
    23bf:	48 8d 3d 6f 20 00 00 	lea    0x206f(%rip),%rdi        # 4435 <_IO_stdin_used+0x435>
    23c6:	e8 a5 ee ff ff       	call   1270 <puts@plt>
    23cb:	b8 00 00 00 00       	mov    $0x0,%eax
    23d0:	e8 26 fc ff ff       	call   1ffb <check_fail>
    23d5:	48 8d 3d c4 21 00 00 	lea    0x21c4(%rip),%rdi        # 45a0 <_IO_stdin_used+0x5a0>
    23dc:	e8 8f ee ff ff       	call   1270 <puts@plt>
    23e1:	48 8d 3d 57 20 00 00 	lea    0x2057(%rip),%rdi        # 443f <_IO_stdin_used+0x43f>
    23e8:	e8 83 ee ff ff       	call   1270 <puts@plt>
    23ed:	be 00 00 00 00       	mov    $0x0,%esi
    23f2:	bf 00 00 00 00       	mov    $0x0,%edi
    23f7:	e8 93 fc ff ff       	call   208f <notify_server>
    23fc:	bf 01 00 00 00       	mov    $0x1,%edi
    2401:	e8 ba ef ff ff       	call   13c0 <exit@plt>

0000000000002406 <seghandler>:
    2406:	f3 0f 1e fa          	endbr64 
    240a:	50                   	push   %rax
    240b:	58                   	pop    %rax
    240c:	48 83 ec 08          	sub    $0x8,%rsp
    2410:	83 3d d1 4f 00 00 00 	cmpl   $0x0,0x4fd1(%rip)        # 73e8 <is_checker>
    2417:	74 16                	je     242f <seghandler+0x29>
    2419:	48 8d 3d 35 20 00 00 	lea    0x2035(%rip),%rdi        # 4455 <_IO_stdin_used+0x455>
    2420:	e8 4b ee ff ff       	call   1270 <puts@plt>
    2425:	b8 00 00 00 00       	mov    $0x0,%eax
    242a:	e8 cc fb ff ff       	call   1ffb <check_fail>
    242f:	48 8d 3d 8a 21 00 00 	lea    0x218a(%rip),%rdi        # 45c0 <_IO_stdin_used+0x5c0>
    2436:	e8 35 ee ff ff       	call   1270 <puts@plt>
    243b:	48 8d 3d fd 1f 00 00 	lea    0x1ffd(%rip),%rdi        # 443f <_IO_stdin_used+0x43f>
    2442:	e8 29 ee ff ff       	call   1270 <puts@plt>
    2447:	be 00 00 00 00       	mov    $0x0,%esi
    244c:	bf 00 00 00 00       	mov    $0x0,%edi
    2451:	e8 39 fc ff ff       	call   208f <notify_server>
    2456:	bf 01 00 00 00       	mov    $0x1,%edi
    245b:	e8 60 ef ff ff       	call   13c0 <exit@plt>

0000000000002460 <illegalhandler>:
    2460:	f3 0f 1e fa          	endbr64 
    2464:	50                   	push   %rax
    2465:	58                   	pop    %rax
    2466:	48 83 ec 08          	sub    $0x8,%rsp
    246a:	83 3d 77 4f 00 00 00 	cmpl   $0x0,0x4f77(%rip)        # 73e8 <is_checker>
    2471:	74 16                	je     2489 <illegalhandler+0x29>
    2473:	48 8d 3d ee 1f 00 00 	lea    0x1fee(%rip),%rdi        # 4468 <_IO_stdin_used+0x468>
    247a:	e8 f1 ed ff ff       	call   1270 <puts@plt>
    247f:	b8 00 00 00 00       	mov    $0x0,%eax
    2484:	e8 72 fb ff ff       	call   1ffb <check_fail>
    2489:	48 8d 3d 58 21 00 00 	lea    0x2158(%rip),%rdi        # 45e8 <_IO_stdin_used+0x5e8>
    2490:	e8 db ed ff ff       	call   1270 <puts@plt>
    2495:	48 8d 3d a3 1f 00 00 	lea    0x1fa3(%rip),%rdi        # 443f <_IO_stdin_used+0x43f>
    249c:	e8 cf ed ff ff       	call   1270 <puts@plt>
    24a1:	be 00 00 00 00       	mov    $0x0,%esi
    24a6:	bf 00 00 00 00       	mov    $0x0,%edi
    24ab:	e8 df fb ff ff       	call   208f <notify_server>
    24b0:	bf 01 00 00 00       	mov    $0x1,%edi
    24b5:	e8 06 ef ff ff       	call   13c0 <exit@plt>

00000000000024ba <sigalrmhandler>:
    24ba:	f3 0f 1e fa          	endbr64 
    24be:	50                   	push   %rax
    24bf:	58                   	pop    %rax
    24c0:	48 83 ec 08          	sub    $0x8,%rsp
    24c4:	83 3d 1d 4f 00 00 00 	cmpl   $0x0,0x4f1d(%rip)        # 73e8 <is_checker>
    24cb:	74 16                	je     24e3 <sigalrmhandler+0x29>
    24cd:	48 8d 3d a8 1f 00 00 	lea    0x1fa8(%rip),%rdi        # 447c <_IO_stdin_used+0x47c>
    24d4:	e8 97 ed ff ff       	call   1270 <puts@plt>
    24d9:	b8 00 00 00 00       	mov    $0x0,%eax
    24de:	e8 18 fb ff ff       	call   1ffb <check_fail>
    24e3:	ba 05 00 00 00       	mov    $0x5,%edx
    24e8:	48 8d 35 29 21 00 00 	lea    0x2129(%rip),%rsi        # 4618 <_IO_stdin_used+0x618>
    24ef:	bf 01 00 00 00       	mov    $0x1,%edi
    24f4:	b8 00 00 00 00       	mov    $0x0,%eax
    24f9:	e8 82 ee ff ff       	call   1380 <__printf_chk@plt>
    24fe:	be 00 00 00 00       	mov    $0x0,%esi
    2503:	bf 00 00 00 00       	mov    $0x0,%edi
    2508:	e8 82 fb ff ff       	call   208f <notify_server>
    250d:	bf 01 00 00 00       	mov    $0x1,%edi
    2512:	e8 a9 ee ff ff       	call   13c0 <exit@plt>

0000000000002517 <launch>:
    2517:	f3 0f 1e fa          	endbr64 
    251b:	55                   	push   %rbp
    251c:	48 89 e5             	mov    %rsp,%rbp
    251f:	48 83 ec 10          	sub    $0x10,%rsp
    2523:	48 89 fa             	mov    %rdi,%rdx
    2526:	64 48 8b 04 25 28 00 	mov    %fs:0x28,%rax
    252d:	00 00 
    252f:	48 89 45 f8          	mov    %rax,-0x8(%rbp)
    2533:	31 c0                	xor    %eax,%eax
    2535:	48 8d 47 17          	lea    0x17(%rdi),%rax
    2539:	48 89 c1             	mov    %rax,%rcx
    253c:	48 83 e1 f0          	and    $0xfffffffffffffff0,%rcx
    2540:	48 25 00 f0 ff ff    	and    $0xfffffffffffff000,%rax
    2546:	48 89 e6             	mov    %rsp,%rsi
    2549:	48 29 c6             	sub    %rax,%rsi
    254c:	48 89 f0             	mov    %rsi,%rax
    254f:	48 39 c4             	cmp    %rax,%rsp
    2552:	74 12                	je     2566 <launch+0x4f>
    2554:	48 81 ec 00 10 00 00 	sub    $0x1000,%rsp
    255b:	48 83 8c 24 f8 0f 00 	orq    $0x0,0xff8(%rsp)
    2562:	00 00 
    2564:	eb e9                	jmp    254f <launch+0x38>
    2566:	48 89 c8             	mov    %rcx,%rax
    2569:	25 ff 0f 00 00       	and    $0xfff,%eax
    256e:	48 29 c4             	sub    %rax,%rsp
    2571:	48 85 c0             	test   %rax,%rax
    2574:	74 06                	je     257c <launch+0x65>
    2576:	48 83 4c 04 f8 00    	orq    $0x0,-0x8(%rsp,%rax,1)
    257c:	48 8d 7c 24 0f       	lea    0xf(%rsp),%rdi
    2581:	48 83 e7 f0          	and    $0xfffffffffffffff0,%rdi
    2585:	be f4 00 00 00       	mov    $0xf4,%esi
    258a:	e8 21 ed ff ff       	call   12b0 <memset@plt>
    258f:	48 8b 05 ea 4d 00 00 	mov    0x4dea(%rip),%rax        # 7380 <stdin@GLIBC_2.2.5>
    2596:	48 39 05 33 4e 00 00 	cmp    %rax,0x4e33(%rip)        # 73d0 <infile>
    259d:	74 3a                	je     25d9 <launch+0xc2>
    259f:	c7 05 33 4e 00 00 00 	movl   $0x0,0x4e33(%rip)        # 73dc <vlevel>
    25a6:	00 00 00 
    25a9:	b8 00 00 00 00       	mov    $0x0,%eax
    25ae:	e8 aa f9 ff ff       	call   1f5d <test>
    25b3:	83 3d 2e 4e 00 00 00 	cmpl   $0x0,0x4e2e(%rip)        # 73e8 <is_checker>
    25ba:	75 35                	jne    25f1 <launch+0xda>
    25bc:	48 8d 3d d9 1e 00 00 	lea    0x1ed9(%rip),%rdi        # 449c <_IO_stdin_used+0x49c>
    25c3:	e8 a8 ec ff ff       	call   1270 <puts@plt>
    25c8:	48 8b 45 f8          	mov    -0x8(%rbp),%rax
    25cc:	64 48 33 04 25 28 00 	xor    %fs:0x28,%rax
    25d3:	00 00 
    25d5:	75 30                	jne    2607 <launch+0xf0>
    25d7:	c9                   	leave  
    25d8:	c3                   	ret    
    25d9:	48 8d 35 a4 1e 00 00 	lea    0x1ea4(%rip),%rsi        # 4484 <_IO_stdin_used+0x484>
    25e0:	bf 01 00 00 00       	mov    $0x1,%edi
    25e5:	b8 00 00 00 00       	mov    $0x0,%eax
    25ea:	e8 91 ed ff ff       	call   1380 <__printf_chk@plt>
    25ef:	eb ae                	jmp    259f <launch+0x88>
    25f1:	48 8d 3d 99 1e 00 00 	lea    0x1e99(%rip),%rdi        # 4491 <_IO_stdin_used+0x491>
    25f8:	e8 73 ec ff ff       	call   1270 <puts@plt>
    25fd:	b8 00 00 00 00       	mov    $0x0,%eax
    2602:	e8 f4 f9 ff ff       	call   1ffb <check_fail>
    2607:	e8 84 ec ff ff       	call   1290 <__stack_chk_fail@plt>

000000000000260c <stable_launch>:
    260c:	f3 0f 1e fa          	endbr64 
    2610:	53                   	push   %rbx
    2611:	48 89 3d b0 4d 00 00 	mov    %rdi,0x4db0(%rip)        # 73c8 <global_offset>
    2618:	41 b9 00 00 00 00    	mov    $0x0,%r9d
    261e:	41 b8 00 00 00 00    	mov    $0x0,%r8d
    2624:	b9 32 01 00 00       	mov    $0x132,%ecx
    2629:	ba 07 00 00 00       	mov    $0x7,%edx
    262e:	be 00 00 10 00       	mov    $0x100000,%esi
    2633:	bf 00 60 58 55       	mov    $0x55586000,%edi
    2638:	e8 63 ec ff ff       	call   12a0 <mmap@plt>
    263d:	48 89 c3             	mov    %rax,%rbx
    2640:	48 3d 00 60 58 55    	cmp    $0x55586000,%rax
    2646:	75 43                	jne    268b <stable_launch+0x7f>
    2648:	48 8d 90 f8 ff 0f 00 	lea    0xffff8(%rax),%rdx
    264f:	48 89 15 ba 59 00 00 	mov    %rdx,0x59ba(%rip)        # 8010 <stack_top>
    2656:	48 89 e0             	mov    %rsp,%rax
    2659:	48 89 d4             	mov    %rdx,%rsp
    265c:	48 89 c2             	mov    %rax,%rdx
    265f:	48 89 15 5a 4d 00 00 	mov    %rdx,0x4d5a(%rip)        # 73c0 <global_save_stack>
    2666:	48 8b 3d 5b 4d 00 00 	mov    0x4d5b(%rip),%rdi        # 73c8 <global_offset>
    266d:	e8 a5 fe ff ff       	call   2517 <launch>
    2672:	48 8b 05 47 4d 00 00 	mov    0x4d47(%rip),%rax        # 73c0 <global_save_stack>
    2679:	48 89 c4             	mov    %rax,%rsp
    267c:	be 00 00 10 00       	mov    $0x100000,%esi
    2681:	48 89 df             	mov    %rbx,%rdi
    2684:	e8 e7 ec ff ff       	call   1370 <munmap@plt>
    2689:	5b                   	pop    %rbx
    268a:	c3                   	ret    
    268b:	be 00 00 10 00       	mov    $0x100000,%esi
    2690:	48 89 c7             	mov    %rax,%rdi
    2693:	e8 d8 ec ff ff       	call   1370 <munmap@plt>
    2698:	b9 00 60 58 55       	mov    $0x55586000,%ecx
    269d:	48 8d 15 ac 1f 00 00 	lea    0x1fac(%rip),%rdx        # 4650 <_IO_stdin_used+0x650>
    26a4:	be 01 00 00 00       	mov    $0x1,%esi
    26a9:	48 8b 3d f0 4c 00 00 	mov    0x4cf0(%rip),%rdi        # 73a0 <stderr@GLIBC_2.2.5>
    26b0:	b8 00 00 00 00       	mov    $0x0,%eax
    26b5:	e8 26 ed ff ff       	call   13e0 <__fprintf_chk@plt>
    26ba:	bf 01 00 00 00       	mov    $0x1,%edi
    26bf:	e8 fc ec ff ff       	call   13c0 <exit@plt>

00000000000026c4 <rio_readinitb>:
    26c4:	89 37                	mov    %esi,(%rdi)
    26c6:	c7 47 04 00 00 00 00 	movl   $0x0,0x4(%rdi)
    26cd:	48 8d 47 10          	lea    0x10(%rdi),%rax
    26d1:	48 89 47 08          	mov    %rax,0x8(%rdi)
    26d5:	c3                   	ret    

00000000000026d6 <sigalrm_handler>:
    26d6:	f3 0f 1e fa          	endbr64 
    26da:	50                   	push   %rax
    26db:	58                   	pop    %rax
    26dc:	48 83 ec 08          	sub    $0x8,%rsp
    26e0:	b9 00 00 00 00       	mov    $0x0,%ecx
    26e5:	48 8d 15 a4 1f 00 00 	lea    0x1fa4(%rip),%rdx        # 4690 <trans_char+0x10>
    26ec:	be 01 00 00 00       	mov    $0x1,%esi
    26f1:	48 8b 3d a8 4c 00 00 	mov    0x4ca8(%rip),%rdi        # 73a0 <stderr@GLIBC_2.2.5>
    26f8:	b8 00 00 00 00       	mov    $0x0,%eax
    26fd:	e8 de ec ff ff       	call   13e0 <__fprintf_chk@plt>
    2702:	bf 01 00 00 00       	mov    $0x1,%edi
    2707:	e8 b4 ec ff ff       	call   13c0 <exit@plt>

000000000000270c <rio_writen>:
    270c:	41 55                	push   %r13
    270e:	41 54                	push   %r12
    2710:	55                   	push   %rbp
    2711:	53                   	push   %rbx
    2712:	48 83 ec 08          	sub    $0x8,%rsp
    2716:	41 89 fc             	mov    %edi,%r12d
    2719:	48 89 f5             	mov    %rsi,%rbp
    271c:	49 89 d5             	mov    %rdx,%r13
    271f:	48 89 d3             	mov    %rdx,%rbx
    2722:	eb 06                	jmp    272a <rio_writen+0x1e>
    2724:	48 29 c3             	sub    %rax,%rbx
    2727:	48 01 c5             	add    %rax,%rbp
    272a:	48 85 db             	test   %rbx,%rbx
    272d:	74 24                	je     2753 <rio_writen+0x47>
    272f:	48 89 da             	mov    %rbx,%rdx
    2732:	48 89 ee             	mov    %rbp,%rsi
    2735:	44 89 e7             	mov    %r12d,%edi
    2738:	e8 43 eb ff ff       	call   1280 <write@plt>
    273d:	48 85 c0             	test   %rax,%rax
    2740:	7f e2                	jg     2724 <rio_writen+0x18>
    2742:	e8 e9 ea ff ff       	call   1230 <__errno_location@plt>
    2747:	83 38 04             	cmpl   $0x4,(%rax)
    274a:	75 15                	jne    2761 <rio_writen+0x55>
    274c:	b8 00 00 00 00       	mov    $0x0,%eax
    2751:	eb d1                	jmp    2724 <rio_writen+0x18>
    2753:	4c 89 e8             	mov    %r13,%rax
    2756:	48 83 c4 08          	add    $0x8,%rsp
    275a:	5b                   	pop    %rbx
    275b:	5d                   	pop    %rbp
    275c:	41 5c                	pop    %r12
    275e:	41 5d                	pop    %r13
    2760:	c3                   	ret    
    2761:	48 c7 c0 ff ff ff ff 	mov    $0xffffffffffffffff,%rax
    2768:	eb ec                	jmp    2756 <rio_writen+0x4a>

000000000000276a <rio_read>:
    276a:	41 55                	push   %r13
    276c:	41 54                	push   %r12
    276e:	55                   	push   %rbp
    276f:	53                   	push   %rbx
    2770:	48 83 ec 08          	sub    $0x8,%rsp
    2774:	48 89 fb             	mov    %rdi,%rbx
    2777:	49 89 f5             	mov    %rsi,%r13
    277a:	49 89 d4             	mov    %rdx,%r12
    277d:	eb 17                	jmp    2796 <rio_read+0x2c>
    277f:	e8 ac ea ff ff       	call   1230 <__errno_location@plt>
    2784:	83 38 04             	cmpl   $0x4,(%rax)
    2787:	74 0d                	je     2796 <rio_read+0x2c>
    2789:	48 c7 c0 ff ff ff ff 	mov    $0xffffffffffffffff,%rax
    2790:	eb 54                	jmp    27e6 <rio_read+0x7c>
    2792:	48 89 6b 08          	mov    %rbp,0x8(%rbx)
    2796:	8b 6b 04             	mov    0x4(%rbx),%ebp
    2799:	85 ed                	test   %ebp,%ebp
    279b:	7f 23                	jg     27c0 <rio_read+0x56>
    279d:	48 8d 6b 10          	lea    0x10(%rbx),%rbp
    27a1:	8b 3b                	mov    (%rbx),%edi
    27a3:	ba 00 20 00 00       	mov    $0x2000,%edx
    27a8:	48 89 ee             	mov    %rbp,%rsi
    27ab:	e8 30 eb ff ff       	call   12e0 <read@plt>
    27b0:	89 43 04             	mov    %eax,0x4(%rbx)
    27b3:	85 c0                	test   %eax,%eax
    27b5:	78 c8                	js     277f <rio_read+0x15>
    27b7:	75 d9                	jne    2792 <rio_read+0x28>
    27b9:	b8 00 00 00 00       	mov    $0x0,%eax
    27be:	eb 26                	jmp    27e6 <rio_read+0x7c>
    27c0:	89 e8                	mov    %ebp,%eax
    27c2:	4c 39 e0             	cmp    %r12,%rax
    27c5:	72 03                	jb     27ca <rio_read+0x60>
    27c7:	44 89 e5             	mov    %r12d,%ebp
    27ca:	4c 63 e5             	movslq %ebp,%r12
    27cd:	48 8b 73 08          	mov    0x8(%rbx),%rsi
    27d1:	4c 89 e2             	mov    %r12,%rdx
    27d4:	4c 89 ef             	mov    %r13,%rdi
    27d7:	e8 54 eb ff ff       	call   1330 <memcpy@plt>
    27dc:	4c 01 63 08          	add    %r12,0x8(%rbx)
    27e0:	29 6b 04             	sub    %ebp,0x4(%rbx)
    27e3:	4c 89 e0             	mov    %r12,%rax
    27e6:	48 83 c4 08          	add    $0x8,%rsp
    27ea:	5b                   	pop    %rbx
    27eb:	5d                   	pop    %rbp
    27ec:	41 5c                	pop    %r12
    27ee:	41 5d                	pop    %r13
    27f0:	c3                   	ret    

00000000000027f1 <rio_readlineb>:
    27f1:	41 55                	push   %r13
    27f3:	41 54                	push   %r12
    27f5:	55                   	push   %rbp
    27f6:	53                   	push   %rbx
    27f7:	48 83 ec 18          	sub    $0x18,%rsp
    27fb:	49 89 fd             	mov    %rdi,%r13
    27fe:	48 89 f5             	mov    %rsi,%rbp
    2801:	49 89 d4             	mov    %rdx,%r12
    2804:	64 48 8b 04 25 28 00 	mov    %fs:0x28,%rax
    280b:	00 00 
    280d:	48 89 44 24 08       	mov    %rax,0x8(%rsp)
    2812:	31 c0                	xor    %eax,%eax
    2814:	bb 01 00 00 00       	mov    $0x1,%ebx
    2819:	eb 18                	jmp    2833 <rio_readlineb+0x42>
    281b:	85 c0                	test   %eax,%eax
    281d:	75 65                	jne    2884 <rio_readlineb+0x93>
    281f:	48 83 fb 01          	cmp    $0x1,%rbx
    2823:	75 3d                	jne    2862 <rio_readlineb+0x71>
    2825:	b8 00 00 00 00       	mov    $0x0,%eax
    282a:	eb 3d                	jmp    2869 <rio_readlineb+0x78>
    282c:	48 83 c3 01          	add    $0x1,%rbx
    2830:	48 89 d5             	mov    %rdx,%rbp
    2833:	4c 39 e3             	cmp    %r12,%rbx
    2836:	73 2a                	jae    2862 <rio_readlineb+0x71>
    2838:	48 8d 74 24 07       	lea    0x7(%rsp),%rsi
    283d:	ba 01 00 00 00       	mov    $0x1,%edx
    2842:	4c 89 ef             	mov    %r13,%rdi
    2845:	e8 20 ff ff ff       	call   276a <rio_read>
    284a:	83 f8 01             	cmp    $0x1,%eax
    284d:	75 cc                	jne    281b <rio_readlineb+0x2a>
    284f:	48 8d 55 01          	lea    0x1(%rbp),%rdx
    2853:	0f b6 44 24 07       	movzbl 0x7(%rsp),%eax
    2858:	88 45 00             	mov    %al,0x0(%rbp)
    285b:	3c 0a                	cmp    $0xa,%al
    285d:	75 cd                	jne    282c <rio_readlineb+0x3b>
    285f:	48 89 d5             	mov    %rdx,%rbp
    2862:	c6 45 00 00          	movb   $0x0,0x0(%rbp)
    2866:	48 89 d8             	mov    %rbx,%rax
    2869:	48 8b 4c 24 08       	mov    0x8(%rsp),%rcx
    286e:	64 48 33 0c 25 28 00 	xor    %fs:0x28,%rcx
    2875:	00 00 
    2877:	75 14                	jne    288d <rio_readlineb+0x9c>
    2879:	48 83 c4 18          	add    $0x18,%rsp
    287d:	5b                   	pop    %rbx
    287e:	5d                   	pop    %rbp
    287f:	41 5c                	pop    %r12
    2881:	41 5d                	pop    %r13
    2883:	c3                   	ret    
    2884:	48 c7 c0 ff ff ff ff 	mov    $0xffffffffffffffff,%rax
    288b:	eb dc                	jmp    2869 <rio_readlineb+0x78>
    288d:	e8 fe e9 ff ff       	call   1290 <__stack_chk_fail@plt>

0000000000002892 <urlencode>:
    2892:	41 54                	push   %r12
    2894:	55                   	push   %rbp
    2895:	53                   	push   %rbx
    2896:	48 83 ec 10          	sub    $0x10,%rsp
    289a:	48 89 fb             	mov    %rdi,%rbx
    289d:	48 89 f5             	mov    %rsi,%rbp
    28a0:	64 48 8b 04 25 28 00 	mov    %fs:0x28,%rax
    28a7:	00 00 
    28a9:	48 89 44 24 08       	mov    %rax,0x8(%rsp)
    28ae:	31 c0                	xor    %eax,%eax
    28b0:	48 c7 c1 ff ff ff ff 	mov    $0xffffffffffffffff,%rcx
    28b7:	f2 ae                	repnz scas %es:(%rdi),%al
    28b9:	48 f7 d1             	not    %rcx
    28bc:	8d 41 ff             	lea    -0x1(%rcx),%eax
    28bf:	eb 0f                	jmp    28d0 <urlencode+0x3e>
    28c1:	44 88 45 00          	mov    %r8b,0x0(%rbp)
    28c5:	48 8d 6d 01          	lea    0x1(%rbp),%rbp
    28c9:	48 83 c3 01          	add    $0x1,%rbx
    28cd:	44 89 e0             	mov    %r12d,%eax
    28d0:	44 8d 60 ff          	lea    -0x1(%rax),%r12d
    28d4:	85 c0                	test   %eax,%eax
    28d6:	0f 84 a8 00 00 00    	je     2984 <urlencode+0xf2>
    28dc:	44 0f b6 03          	movzbl (%rbx),%r8d
    28e0:	41 80 f8 2a          	cmp    $0x2a,%r8b
    28e4:	0f 94 c2             	sete   %dl
    28e7:	41 80 f8 2d          	cmp    $0x2d,%r8b
    28eb:	0f 94 c0             	sete   %al
    28ee:	08 c2                	or     %al,%dl
    28f0:	75 cf                	jne    28c1 <urlencode+0x2f>
    28f2:	41 80 f8 2e          	cmp    $0x2e,%r8b
    28f6:	74 c9                	je     28c1 <urlencode+0x2f>
    28f8:	41 80 f8 5f          	cmp    $0x5f,%r8b
    28fc:	74 c3                	je     28c1 <urlencode+0x2f>
    28fe:	41 8d 40 d0          	lea    -0x30(%r8),%eax
    2902:	3c 09                	cmp    $0x9,%al
    2904:	76 bb                	jbe    28c1 <urlencode+0x2f>
    2906:	41 8d 40 bf          	lea    -0x41(%r8),%eax
    290a:	3c 19                	cmp    $0x19,%al
    290c:	76 b3                	jbe    28c1 <urlencode+0x2f>
    290e:	41 8d 40 9f          	lea    -0x61(%r8),%eax
    2912:	3c 19                	cmp    $0x19,%al
    2914:	76 ab                	jbe    28c1 <urlencode+0x2f>
    2916:	41 80 f8 20          	cmp    $0x20,%r8b
    291a:	74 56                	je     2972 <urlencode+0xe0>
    291c:	41 8d 40 e0          	lea    -0x20(%r8),%eax
    2920:	3c 5f                	cmp    $0x5f,%al
    2922:	0f 96 c2             	setbe  %dl
    2925:	41 80 f8 09          	cmp    $0x9,%r8b
    2929:	0f 94 c0             	sete   %al
    292c:	08 c2                	or     %al,%dl
    292e:	74 4f                	je     297f <urlencode+0xed>
    2930:	48 89 e7             	mov    %rsp,%rdi
    2933:	45 0f b6 c0          	movzbl %r8b,%r8d
    2937:	48 8d 0d e7 1d 00 00 	lea    0x1de7(%rip),%rcx        # 4725 <trans_char+0xa5>
    293e:	ba 08 00 00 00       	mov    $0x8,%edx
    2943:	be 01 00 00 00       	mov    $0x1,%esi
    2948:	b8 00 00 00 00       	mov    $0x0,%eax
    294d:	e8 ae ea ff ff       	call   1400 <__sprintf_chk@plt>
    2952:	0f b6 04 24          	movzbl (%rsp),%eax
    2956:	88 45 00             	mov    %al,0x0(%rbp)
    2959:	0f b6 44 24 01       	movzbl 0x1(%rsp),%eax
    295e:	88 45 01             	mov    %al,0x1(%rbp)
    2961:	0f b6 44 24 02       	movzbl 0x2(%rsp),%eax
    2966:	88 45 02             	mov    %al,0x2(%rbp)
    2969:	48 8d 6d 03          	lea    0x3(%rbp),%rbp
    296d:	e9 57 ff ff ff       	jmp    28c9 <urlencode+0x37>
    2972:	c6 45 00 2b          	movb   $0x2b,0x0(%rbp)
    2976:	48 8d 6d 01          	lea    0x1(%rbp),%rbp
    297a:	e9 4a ff ff ff       	jmp    28c9 <urlencode+0x37>
    297f:	b8 ff ff ff ff       	mov    $0xffffffff,%eax
    2984:	48 8b 74 24 08       	mov    0x8(%rsp),%rsi
    2989:	64 48 33 34 25 28 00 	xor    %fs:0x28,%rsi
    2990:	00 00 
    2992:	75 09                	jne    299d <urlencode+0x10b>
    2994:	48 83 c4 10          	add    $0x10,%rsp
    2998:	5b                   	pop    %rbx
    2999:	5d                   	pop    %rbp
    299a:	41 5c                	pop    %r12
    299c:	c3                   	ret    
    299d:	e8 ee e8 ff ff       	call   1290 <__stack_chk_fail@plt>

00000000000029a2 <submitr>:
    29a2:	f3 0f 1e fa          	endbr64 
    29a6:	41 57                	push   %r15
    29a8:	41 56                	push   %r14
    29aa:	41 55                	push   %r13
    29ac:	41 54                	push   %r12
    29ae:	55                   	push   %rbp
    29af:	53                   	push   %rbx
    29b0:	4c 8d 9c 24 00 60 ff 	lea    -0xa000(%rsp),%r11
    29b7:	ff 
    29b8:	48 81 ec 00 10 00 00 	sub    $0x1000,%rsp
    29bf:	48 83 0c 24 00       	orq    $0x0,(%rsp)
    29c4:	4c 39 dc             	cmp    %r11,%rsp
    29c7:	75 ef                	jne    29b8 <submitr+0x16>
    29c9:	48 83 ec 68          	sub    $0x68,%rsp
    29cd:	49 89 fc             	mov    %rdi,%r12
    29d0:	89 74 24 14          	mov    %esi,0x14(%rsp)
    29d4:	49 89 d6             	mov    %rdx,%r14
    29d7:	48 89 4c 24 08       	mov    %rcx,0x8(%rsp)
    29dc:	4c 89 44 24 18       	mov    %r8,0x18(%rsp)
    29e1:	4d 89 cd             	mov    %r9,%r13
    29e4:	48 8b ac 24 a0 a0 00 	mov    0xa0a0(%rsp),%rbp
    29eb:	00 
    29ec:	64 48 8b 04 25 28 00 	mov    %fs:0x28,%rax
    29f3:	00 00 
    29f5:	48 89 84 24 58 a0 00 	mov    %rax,0xa058(%rsp)
    29fc:	00 
    29fd:	31 c0                	xor    %eax,%eax
    29ff:	c7 44 24 2c 00 00 00 	movl   $0x0,0x2c(%rsp)
    2a06:	00 
    2a07:	ba 00 00 00 00       	mov    $0x0,%edx
    2a0c:	be 01 00 00 00       	mov    $0x1,%esi
    2a11:	bf 02 00 00 00       	mov    $0x2,%edi
    2a16:	e8 f5 e9 ff ff       	call   1410 <socket@plt>
    2a1b:	85 c0                	test   %eax,%eax
    2a1d:	0f 88 a0 02 00 00    	js     2cc3 <submitr+0x321>
    2a23:	89 c3                	mov    %eax,%ebx
    2a25:	4c 89 e7             	mov    %r12,%rdi
    2a28:	e8 d3 e8 ff ff       	call   1300 <gethostbyname@plt>
    2a2d:	48 85 c0             	test   %rax,%rax
    2a30:	0f 84 d9 02 00 00    	je     2d0f <submitr+0x36d>
    2a36:	4c 8d 7c 24 30       	lea    0x30(%rsp),%r15
    2a3b:	48 c7 44 24 30 00 00 	movq   $0x0,0x30(%rsp)
    2a42:	00 00 
    2a44:	48 c7 44 24 38 00 00 	movq   $0x0,0x38(%rsp)
    2a4b:	00 00 
    2a4d:	66 c7 44 24 30 02 00 	movw   $0x2,0x30(%rsp)
    2a54:	48 63 50 14          	movslq 0x14(%rax),%rdx
    2a58:	48 8b 40 18          	mov    0x18(%rax),%rax
    2a5c:	48 8b 30             	mov    (%rax),%rsi
    2a5f:	48 8d 7c 24 34       	lea    0x34(%rsp),%rdi
    2a64:	b9 0c 00 00 00       	mov    $0xc,%ecx
    2a69:	e8 a2 e8 ff ff       	call   1310 <__memmove_chk@plt>
    2a6e:	0f b7 74 24 14       	movzwl 0x14(%rsp),%esi
    2a73:	66 c1 c6 08          	rol    $0x8,%si
    2a77:	66 89 74 24 32       	mov    %si,0x32(%rsp)
    2a7c:	ba 10 00 00 00       	mov    $0x10,%edx
    2a81:	4c 89 fe             	mov    %r15,%rsi
    2a84:	89 df                	mov    %ebx,%edi
    2a86:	e8 45 e9 ff ff       	call   13d0 <connect@plt>
    2a8b:	85 c0                	test   %eax,%eax
    2a8d:	0f 88 e4 02 00 00    	js     2d77 <submitr+0x3d5>
    2a93:	49 c7 c0 ff ff ff ff 	mov    $0xffffffffffffffff,%r8
    2a9a:	b8 00 00 00 00       	mov    $0x0,%eax
    2a9f:	4c 89 c1             	mov    %r8,%rcx
    2aa2:	4c 89 ef             	mov    %r13,%rdi
    2aa5:	f2 ae                	repnz scas %es:(%rdi),%al
    2aa7:	48 89 ca             	mov    %rcx,%rdx
    2aaa:	48 f7 d2             	not    %rdx
    2aad:	4c 89 c1             	mov    %r8,%rcx
    2ab0:	4c 89 f7             	mov    %r14,%rdi
    2ab3:	f2 ae                	repnz scas %es:(%rdi),%al
    2ab5:	48 f7 d1             	not    %rcx
    2ab8:	48 89 ce             	mov    %rcx,%rsi
    2abb:	4c 89 c1             	mov    %r8,%rcx
    2abe:	48 8b 7c 24 08       	mov    0x8(%rsp),%rdi
    2ac3:	f2 ae                	repnz scas %es:(%rdi),%al
    2ac5:	48 f7 d1             	not    %rcx
    2ac8:	48 8d 74 0e fe       	lea    -0x2(%rsi,%rcx,1),%rsi
    2acd:	4c 89 c1             	mov    %r8,%rcx
    2ad0:	48 8b 7c 24 18       	mov    0x18(%rsp),%rdi
    2ad5:	f2 ae                	repnz scas %es:(%rdi),%al
    2ad7:	48 89 c8             	mov    %rcx,%rax
    2ada:	48 f7 d0             	not    %rax
    2add:	48 8d 4c 06 ff       	lea    -0x1(%rsi,%rax,1),%rcx
    2ae2:	48 8d 44 52 fd       	lea    -0x3(%rdx,%rdx,2),%rax
    2ae7:	48 8d 84 01 80 00 00 	lea    0x80(%rcx,%rax,1),%rax
    2aee:	00 
    2aef:	48 3d 00 20 00 00    	cmp    $0x2000,%rax
    2af5:	0f 87 d6 02 00 00    	ja     2dd1 <submitr+0x42f>
    2afb:	48 8d b4 24 50 40 00 	lea    0x4050(%rsp),%rsi
    2b02:	00 
    2b03:	b9 00 04 00 00       	mov    $0x400,%ecx
    2b08:	b8 00 00 00 00       	mov    $0x0,%eax
    2b0d:	48 89 f7             	mov    %rsi,%rdi
    2b10:	f3 48 ab             	rep stos %rax,%es:(%rdi)
    2b13:	4c 89 ef             	mov    %r13,%rdi
    2b16:	e8 77 fd ff ff       	call   2892 <urlencode>
    2b1b:	85 c0                	test   %eax,%eax
    2b1d:	0f 88 21 03 00 00    	js     2e44 <submitr+0x4a2>
    2b23:	4c 8d bc 24 50 20 00 	lea    0x2050(%rsp),%r15
    2b2a:	00 
    2b2b:	41 54                	push   %r12
    2b2d:	48 8d 84 24 58 40 00 	lea    0x4058(%rsp),%rax
    2b34:	00 
    2b35:	50                   	push   %rax
    2b36:	4d 89 f1             	mov    %r14,%r9
    2b39:	4c 8b 44 24 18       	mov    0x18(%rsp),%r8
    2b3e:	48 8d 0d 73 1b 00 00 	lea    0x1b73(%rip),%rcx        # 46b8 <trans_char+0x38>
    2b45:	ba 00 20 00 00       	mov    $0x2000,%edx
    2b4a:	be 01 00 00 00       	mov    $0x1,%esi
    2b4f:	4c 89 ff             	mov    %r15,%rdi
    2b52:	b8 00 00 00 00       	mov    $0x0,%eax
    2b57:	e8 a4 e8 ff ff       	call   1400 <__sprintf_chk@plt>
    2b5c:	48 c7 c1 ff ff ff ff 	mov    $0xffffffffffffffff,%rcx
    2b63:	b8 00 00 00 00       	mov    $0x0,%eax
    2b68:	4c 89 ff             	mov    %r15,%rdi
    2b6b:	f2 ae                	repnz scas %es:(%rdi),%al
    2b6d:	48 f7 d1             	not    %rcx
    2b70:	48 8d 51 ff          	lea    -0x1(%rcx),%rdx
    2b74:	4c 89 fe             	mov    %r15,%rsi
    2b77:	89 df                	mov    %ebx,%edi
    2b79:	e8 8e fb ff ff       	call   270c <rio_writen>
    2b7e:	48 83 c4 10          	add    $0x10,%rsp
    2b82:	48 85 c0             	test   %rax,%rax
    2b85:	0f 88 44 03 00 00    	js     2ecf <submitr+0x52d>
    2b8b:	4c 8d 64 24 40       	lea    0x40(%rsp),%r12
    2b90:	89 de                	mov    %ebx,%esi
    2b92:	4c 89 e7             	mov    %r12,%rdi
    2b95:	e8 2a fb ff ff       	call   26c4 <rio_readinitb>
    2b9a:	48 8d b4 24 50 20 00 	lea    0x2050(%rsp),%rsi
    2ba1:	00 
    2ba2:	ba 00 20 00 00       	mov    $0x2000,%edx
    2ba7:	4c 89 e7             	mov    %r12,%rdi
    2baa:	e8 42 fc ff ff       	call   27f1 <rio_readlineb>
    2baf:	48 85 c0             	test   %rax,%rax
    2bb2:	0f 8e 86 03 00 00    	jle    2f3e <submitr+0x59c>
    2bb8:	48 8d 4c 24 2c       	lea    0x2c(%rsp),%rcx
    2bbd:	48 8d 94 24 50 60 00 	lea    0x6050(%rsp),%rdx
    2bc4:	00 
    2bc5:	48 8d bc 24 50 20 00 	lea    0x2050(%rsp),%rdi
    2bcc:	00 
    2bcd:	4c 8d 84 24 50 80 00 	lea    0x8050(%rsp),%r8
    2bd4:	00 
    2bd5:	48 8d 35 50 1b 00 00 	lea    0x1b50(%rip),%rsi        # 472c <trans_char+0xac>
    2bdc:	b8 00 00 00 00       	mov    $0x0,%eax
    2be1:	e8 7a e7 ff ff       	call   1360 <__isoc99_sscanf@plt>
    2be6:	48 8d b4 24 50 20 00 	lea    0x2050(%rsp),%rsi
    2bed:	00 
    2bee:	b9 03 00 00 00       	mov    $0x3,%ecx
    2bf3:	48 8d 3d 49 1b 00 00 	lea    0x1b49(%rip),%rdi        # 4743 <trans_char+0xc3>
    2bfa:	f3 a6                	repz cmpsb %es:(%rdi),%ds:(%rsi)
    2bfc:	0f 97 c0             	seta   %al
    2bff:	1c 00                	sbb    $0x0,%al
    2c01:	84 c0                	test   %al,%al
    2c03:	0f 84 b3 03 00 00    	je     2fbc <submitr+0x61a>
    2c09:	48 8d b4 24 50 20 00 	lea    0x2050(%rsp),%rsi
    2c10:	00 
    2c11:	48 8d 7c 24 40       	lea    0x40(%rsp),%rdi
    2c16:	ba 00 20 00 00       	mov    $0x2000,%edx
    2c1b:	e8 d1 fb ff ff       	call   27f1 <rio_readlineb>
    2c20:	48 85 c0             	test   %rax,%rax
    2c23:	7f c1                	jg     2be6 <submitr+0x244>
    2c25:	48 b8 45 72 72 6f 72 	movabs $0x43203a726f727245,%rax
    2c2c:	3a 20 43 
    2c2f:	48 ba 6c 69 65 6e 74 	movabs $0x6e7520746e65696c,%rdx
    2c36:	20 75 6e 
    2c39:	48 89 45 00          	mov    %rax,0x0(%rbp)
    2c3d:	48 89 55 08          	mov    %rdx,0x8(%rbp)
    2c41:	48 b8 61 62 6c 65 20 	movabs $0x206f7420656c6261,%rax
    2c48:	74 6f 20 
    2c4b:	48 ba 72 65 61 64 20 	movabs $0x6165682064616572,%rdx
    2c52:	68 65 61 
    2c55:	48 89 45 10          	mov    %rax,0x10(%rbp)
    2c59:	48 89 55 18          	mov    %rdx,0x18(%rbp)
    2c5d:	48 b8 64 65 72 73 20 	movabs $0x6f72662073726564,%rax
    2c64:	66 72 6f 
    2c67:	48 ba 6d 20 74 68 65 	movabs $0x657220656874206d,%rdx
    2c6e:	20 72 65 
    2c71:	48 89 45 20          	mov    %rax,0x20(%rbp)
    2c75:	48 89 55 28          	mov    %rdx,0x28(%rbp)
    2c79:	48 b8 73 75 6c 74 20 	movabs $0x72657320746c7573,%rax
    2c80:	73 65 72 
    2c83:	48 89 45 30          	mov    %rax,0x30(%rbp)
    2c87:	c7 45 38 76 65 72 00 	movl   $0x726576,0x38(%rbp)
    2c8e:	89 df                	mov    %ebx,%edi
    2c90:	e8 3b e6 ff ff       	call   12d0 <close@plt>
    2c95:	b8 ff ff ff ff       	mov    $0xffffffff,%eax
    2c9a:	48 8b 9c 24 58 a0 00 	mov    0xa058(%rsp),%rbx
    2ca1:	00 
    2ca2:	64 48 33 1c 25 28 00 	xor    %fs:0x28,%rbx
    2ca9:	00 00 
    2cab:	0f 85 7e 04 00 00    	jne    312f <submitr+0x78d>
    2cb1:	48 81 c4 68 a0 00 00 	add    $0xa068,%rsp
    2cb8:	5b                   	pop    %rbx
    2cb9:	5d                   	pop    %rbp
    2cba:	41 5c                	pop    %r12
    2cbc:	41 5d                	pop    %r13
    2cbe:	41 5e                	pop    %r14
    2cc0:	41 5f                	pop    %r15
    2cc2:	c3                   	ret    
    2cc3:	48 b8 45 72 72 6f 72 	movabs $0x43203a726f727245,%rax
    2cca:	3a 20 43 
    2ccd:	48 ba 6c 69 65 6e 74 	movabs $0x6e7520746e65696c,%rdx
    2cd4:	20 75 6e 
    2cd7:	48 89 45 00          	mov    %rax,0x0(%rbp)
    2cdb:	48 89 55 08          	mov    %rdx,0x8(%rbp)
    2cdf:	48 b8 61 62 6c 65 20 	movabs $0x206f7420656c6261,%rax
    2ce6:	74 6f 20 
    2ce9:	48 ba 63 72 65 61 74 	movabs $0x7320657461657263,%rdx
    2cf0:	65 20 73 
    2cf3:	48 89 45 10          	mov    %rax,0x10(%rbp)
    2cf7:	48 89 55 18          	mov    %rdx,0x18(%rbp)
    2cfb:	c7 45 20 6f 63 6b 65 	movl   $0x656b636f,0x20(%rbp)
    2d02:	66 c7 45 24 74 00    	movw   $0x74,0x24(%rbp)
    2d08:	b8 ff ff ff ff       	mov    $0xffffffff,%eax
    2d0d:	eb 8b                	jmp    2c9a <submitr+0x2f8>
    2d0f:	48 b8 45 72 72 6f 72 	movabs $0x44203a726f727245,%rax
    2d16:	3a 20 44 
    2d19:	48 ba 4e 53 20 69 73 	movabs $0x6e7520736920534e,%rdx
    2d20:	20 75 6e 
    2d23:	48 89 45 00          	mov    %rax,0x0(%rbp)
    2d27:	48 89 55 08          	mov    %rdx,0x8(%rbp)
    2d2b:	48 b8 61 62 6c 65 20 	movabs $0x206f7420656c6261,%rax
    2d32:	74 6f 20 
    2d35:	48 ba 72 65 73 6f 6c 	movabs $0x2065766c6f736572,%rdx
    2d3c:	76 65 20 
    2d3f:	48 89 45 10          	mov    %rax,0x10(%rbp)
    2d43:	48 89 55 18          	mov    %rdx,0x18(%rbp)
    2d47:	48 b8 73 65 72 76 65 	movabs $0x6120726576726573,%rax
    2d4e:	72 20 61 
    2d51:	48 89 45 20          	mov    %rax,0x20(%rbp)
    2d55:	c7 45 28 64 64 72 65 	movl   $0x65726464,0x28(%rbp)
    2d5c:	66 c7 45 2c 73 73    	movw   $0x7373,0x2c(%rbp)
    2d62:	c6 45 2e 00          	movb   $0x0,0x2e(%rbp)
    2d66:	89 df                	mov    %ebx,%edi
    2d68:	e8 63 e5 ff ff       	call   12d0 <close@plt>
    2d6d:	b8 ff ff ff ff       	mov    $0xffffffff,%eax
    2d72:	e9 23 ff ff ff       	jmp    2c9a <submitr+0x2f8>
    2d77:	48 b8 45 72 72 6f 72 	movabs $0x55203a726f727245,%rax
    2d7e:	3a 20 55 
    2d81:	48 ba 6e 61 62 6c 65 	movabs $0x6f7420656c62616e,%rdx
    2d88:	20 74 6f 
    2d8b:	48 89 45 00          	mov    %rax,0x0(%rbp)
    2d8f:	48 89 55 08          	mov    %rdx,0x8(%rbp)
    2d93:	48 b8 20 63 6f 6e 6e 	movabs $0x7463656e6e6f6320,%rax
    2d9a:	65 63 74 
    2d9d:	48 ba 20 74 6f 20 74 	movabs $0x20656874206f7420,%rdx
    2da4:	68 65 20 
    2da7:	48 89 45 10          	mov    %rax,0x10(%rbp)
    2dab:	48 89 55 18          	mov    %rdx,0x18(%rbp)
    2daf:	c7 45 20 73 65 72 76 	movl   $0x76726573,0x20(%rbp)
    2db6:	66 c7 45 24 65 72    	movw   $0x7265,0x24(%rbp)
    2dbc:	c6 45 26 00          	movb   $0x0,0x26(%rbp)
    2dc0:	89 df                	mov    %ebx,%edi
    2dc2:	e8 09 e5 ff ff       	call   12d0 <close@plt>
    2dc7:	b8 ff ff ff ff       	mov    $0xffffffff,%eax
    2dcc:	e9 c9 fe ff ff       	jmp    2c9a <submitr+0x2f8>
    2dd1:	48 b8 45 72 72 6f 72 	movabs $0x52203a726f727245,%rax
    2dd8:	3a 20 52 
    2ddb:	48 ba 65 73 75 6c 74 	movabs $0x747320746c757365,%rdx
    2de2:	20 73 74 
    2de5:	48 89 45 00          	mov    %rax,0x0(%rbp)
    2de9:	48 89 55 08          	mov    %rdx,0x8(%rbp)
    2ded:	48 b8 72 69 6e 67 20 	movabs $0x6f6f7420676e6972,%rax
    2df4:	74 6f 6f 
    2df7:	48 ba 20 6c 61 72 67 	movabs $0x202e656772616c20,%rdx
    2dfe:	65 2e 20 
    2e01:	48 89 45 10          	mov    %rax,0x10(%rbp)
    2e05:	48 89 55 18          	mov    %rdx,0x18(%rbp)
    2e09:	48 b8 49 6e 63 72 65 	movabs $0x6573616572636e49,%rax
    2e10:	61 73 65 
    2e13:	48 ba 20 53 55 42 4d 	movabs $0x5254494d42555320,%rdx
    2e1a:	49 54 52 
    2e1d:	48 89 45 20          	mov    %rax,0x20(%rbp)
    2e21:	48 89 55 28          	mov    %rdx,0x28(%rbp)
    2e25:	48 b8 5f 4d 41 58 42 	movabs $0x46554258414d5f,%rax
    2e2c:	55 46 00 
    2e2f:	48 89 45 30          	mov    %rax,0x30(%rbp)
    2e33:	89 df                	mov    %ebx,%edi
    2e35:	e8 96 e4 ff ff       	call   12d0 <close@plt>
    2e3a:	b8 ff ff ff ff       	mov    $0xffffffff,%eax
    2e3f:	e9 56 fe ff ff       	jmp    2c9a <submitr+0x2f8>
    2e44:	48 b8 45 72 72 6f 72 	movabs $0x52203a726f727245,%rax
    2e4b:	3a 20 52 
    2e4e:	48 ba 65 73 75 6c 74 	movabs $0x747320746c757365,%rdx
    2e55:	20 73 74 
    2e58:	48 89 45 00          	mov    %rax,0x0(%rbp)
    2e5c:	48 89 55 08          	mov    %rdx,0x8(%rbp)
    2e60:	48 b8 72 69 6e 67 20 	movabs $0x6e6f6320676e6972,%rax
    2e67:	63 6f 6e 
    2e6a:	48 ba 74 61 69 6e 73 	movabs $0x6e6120736e696174,%rdx
    2e71:	20 61 6e 
    2e74:	48 89 45 10          	mov    %rax,0x10(%rbp)
    2e78:	48 89 55 18          	mov    %rdx,0x18(%rbp)
    2e7c:	48 b8 20 69 6c 6c 65 	movabs $0x6c6167656c6c6920,%rax
    2e83:	67 61 6c 
    2e86:	48 ba 20 6f 72 20 75 	movabs $0x72706e7520726f20,%rdx
    2e8d:	6e 70 72 
    2e90:	48 89 45 20          	mov    %rax,0x20(%rbp)
    2e94:	48 89 55 28          	mov    %rdx,0x28(%rbp)
    2e98:	48 b8 69 6e 74 61 62 	movabs $0x20656c6261746e69,%rax
    2e9f:	6c 65 20 
    2ea2:	48 ba 63 68 61 72 61 	movabs $0x6574636172616863,%rdx
    2ea9:	63 74 65 
    2eac:	48 89 45 30          	mov    %rax,0x30(%rbp)
    2eb0:	48 89 55 38          	mov    %rdx,0x38(%rbp)
    2eb4:	66 c7 45 40 72 2e    	movw   $0x2e72,0x40(%rbp)
    2eba:	c6 45 42 00          	movb   $0x0,0x42(%rbp)
    2ebe:	89 df                	mov    %ebx,%edi
    2ec0:	e8 0b e4 ff ff       	call   12d0 <close@plt>
    2ec5:	b8 ff ff ff ff       	mov    $0xffffffff,%eax
    2eca:	e9 cb fd ff ff       	jmp    2c9a <submitr+0x2f8>
    2ecf:	48 b8 45 72 72 6f 72 	movabs $0x43203a726f727245,%rax
    2ed6:	3a 20 43 
    2ed9:	48 ba 6c 69 65 6e 74 	movabs $0x6e7520746e65696c,%rdx
    2ee0:	20 75 6e 
    2ee3:	48 89 45 00          	mov    %rax,0x0(%rbp)
    2ee7:	48 89 55 08          	mov    %rdx,0x8(%rbp)
    2eeb:	48 b8 61 62 6c 65 20 	movabs $0x206f7420656c6261,%rax
    2ef2:	74 6f 20 
    2ef5:	48 ba 77 72 69 74 65 	movabs $0x6f74206574697277,%rdx
    2efc:	20 74 6f 
    2eff:	48 89 45 10          	mov    %rax,0x10(%rbp)
    2f03:	48 89 55 18          	mov    %rdx,0x18(%rbp)
    2f07:	48 b8 20 74 68 65 20 	movabs $0x7365722065687420,%rax
    2f0e:	72 65 73 
    2f11:	48 ba 75 6c 74 20 73 	movabs $0x7672657320746c75,%rdx
    2f18:	65 72 76 
    2f1b:	48 89 45 20          	mov    %rax,0x20(%rbp)
    2f1f:	48 89 55 28          	mov    %rdx,0x28(%rbp)
    2f23:	66 c7 45 30 65 72    	movw   $0x7265,0x30(%rbp)
    2f29:	c6 45 32 00          	movb   $0x0,0x32(%rbp)
    2f2d:	89 df                	mov    %ebx,%edi
    2f2f:	e8 9c e3 ff ff       	call   12d0 <close@plt>
    2f34:	b8 ff ff ff ff       	mov    $0xffffffff,%eax
    2f39:	e9 5c fd ff ff       	jmp    2c9a <submitr+0x2f8>
    2f3e:	48 b8 45 72 72 6f 72 	movabs $0x43203a726f727245,%rax
    2f45:	3a 20 43 
    2f48:	48 ba 6c 69 65 6e 74 	movabs $0x6e7520746e65696c,%rdx
    2f4f:	20 75 6e 
    2f52:	48 89 45 00          	mov    %rax,0x0(%rbp)
    2f56:	48 89 55 08          	mov    %rdx,0x8(%rbp)
    2f5a:	48 b8 61 62 6c 65 20 	movabs $0x206f7420656c6261,%rax
    2f61:	74 6f 20 
    2f64:	48 ba 72 65 61 64 20 	movabs $0x7269662064616572,%rdx
    2f6b:	66 69 72 
    2f6e:	48 89 45 10          	mov    %rax,0x10(%rbp)
    2f72:	48 89 55 18          	mov    %rdx,0x18(%rbp)
    2f76:	48 b8 73 74 20 68 65 	movabs $0x6564616568207473,%rax
    2f7d:	61 64 65 
    2f80:	48 ba 72 20 66 72 6f 	movabs $0x72206d6f72662072,%rdx
    2f87:	6d 20 72 
    2f8a:	48 89 45 20          	mov    %rax,0x20(%rbp)
    2f8e:	48 89 55 28          	mov    %rdx,0x28(%rbp)
    2f92:	48 b8 65 73 75 6c 74 	movabs $0x657320746c757365,%rax
    2f99:	20 73 65 
    2f9c:	48 89 45 30          	mov    %rax,0x30(%rbp)
    2fa0:	c7 45 38 72 76 65 72 	movl   $0x72657672,0x38(%rbp)
    2fa7:	c6 45 3c 00          	movb   $0x0,0x3c(%rbp)
    2fab:	89 df                	mov    %ebx,%edi
    2fad:	e8 1e e3 ff ff       	call   12d0 <close@plt>
    2fb2:	b8 ff ff ff ff       	mov    $0xffffffff,%eax
    2fb7:	e9 de fc ff ff       	jmp    2c9a <submitr+0x2f8>
    2fbc:	48 8d b4 24 50 20 00 	lea    0x2050(%rsp),%rsi
    2fc3:	00 
    2fc4:	48 8d 7c 24 40       	lea    0x40(%rsp),%rdi
    2fc9:	ba 00 20 00 00       	mov    $0x2000,%edx
    2fce:	e8 1e f8 ff ff       	call   27f1 <rio_readlineb>
    2fd3:	48 85 c0             	test   %rax,%rax
    2fd6:	0f 8e 96 00 00 00    	jle    3072 <submitr+0x6d0>
    2fdc:	44 8b 44 24 2c       	mov    0x2c(%rsp),%r8d
    2fe1:	41 81 f8 c8 00 00 00 	cmp    $0xc8,%r8d
    2fe8:	0f 85 08 01 00 00    	jne    30f6 <submitr+0x754>
    2fee:	48 8d b4 24 50 20 00 	lea    0x2050(%rsp),%rsi
    2ff5:	00 
    2ff6:	48 89 ef             	mov    %rbp,%rdi
    2ff9:	e8 62 e2 ff ff       	call   1260 <strcpy@plt>
    2ffe:	89 df                	mov    %ebx,%edi
    3000:	e8 cb e2 ff ff       	call   12d0 <close@plt>
    3005:	b9 04 00 00 00       	mov    $0x4,%ecx
    300a:	48 8d 3d 2c 17 00 00 	lea    0x172c(%rip),%rdi        # 473d <trans_char+0xbd>
    3011:	48 89 ee             	mov    %rbp,%rsi
    3014:	f3 a6                	repz cmpsb %es:(%rdi),%ds:(%rsi)
    3016:	0f 97 c0             	seta   %al
    3019:	1c 00                	sbb    $0x0,%al
    301b:	0f be c0             	movsbl %al,%eax
    301e:	85 c0                	test   %eax,%eax
    3020:	0f 84 74 fc ff ff    	je     2c9a <submitr+0x2f8>
    3026:	b9 05 00 00 00       	mov    $0x5,%ecx
    302b:	48 8d 3d 0f 17 00 00 	lea    0x170f(%rip),%rdi        # 4741 <trans_char+0xc1>
    3032:	48 89 ee             	mov    %rbp,%rsi
    3035:	f3 a6                	repz cmpsb %es:(%rdi),%ds:(%rsi)
    3037:	0f 97 c0             	seta   %al
    303a:	1c 00                	sbb    $0x0,%al
    303c:	0f be c0             	movsbl %al,%eax
    303f:	85 c0                	test   %eax,%eax
    3041:	0f 84 53 fc ff ff    	je     2c9a <submitr+0x2f8>
    3047:	b9 03 00 00 00       	mov    $0x3,%ecx
    304c:	48 8d 3d f3 16 00 00 	lea    0x16f3(%rip),%rdi        # 4746 <trans_char+0xc6>
    3053:	48 89 ee             	mov    %rbp,%rsi
    3056:	f3 a6                	repz cmpsb %es:(%rdi),%ds:(%rsi)
    3058:	0f 97 c0             	seta   %al
    305b:	1c 00                	sbb    $0x0,%al
    305d:	0f be c0             	movsbl %al,%eax
    3060:	85 c0                	test   %eax,%eax
    3062:	0f 84 32 fc ff ff    	je     2c9a <submitr+0x2f8>
    3068:	b8 ff ff ff ff       	mov    $0xffffffff,%eax
    306d:	e9 28 fc ff ff       	jmp    2c9a <submitr+0x2f8>
    3072:	48 b8 45 72 72 6f 72 	movabs $0x43203a726f727245,%rax
    3079:	3a 20 43 
    307c:	48 ba 6c 69 65 6e 74 	movabs $0x6e7520746e65696c,%rdx
    3083:	20 75 6e 
    3086:	48 89 45 00          	mov    %rax,0x0(%rbp)
    308a:	48 89 55 08          	mov    %rdx,0x8(%rbp)
    308e:	48 b8 61 62 6c 65 20 	movabs $0x206f7420656c6261,%rax
    3095:	74 6f 20 
    3098:	48 ba 72 65 61 64 20 	movabs $0x6174732064616572,%rdx
    309f:	73 74 61 
    30a2:	48 89 45 10          	mov    %rax,0x10(%rbp)
    30a6:	48 89 55 18          	mov    %rdx,0x18(%rbp)
    30aa:	48 b8 74 75 73 20 6d 	movabs $0x7373656d20737574,%rax
    30b1:	65 73 73 
    30b4:	48 ba 61 67 65 20 66 	movabs $0x6d6f726620656761,%rdx
    30bb:	72 6f 6d 
    30be:	48 89 45 20          	mov    %rax,0x20(%rbp)
    30c2:	48 89 55 28          	mov    %rdx,0x28(%rbp)
    30c6:	48 b8 20 72 65 73 75 	movabs $0x20746c7573657220,%rax
    30cd:	6c 74 20 
    30d0:	48 89 45 30          	mov    %rax,0x30(%rbp)
    30d4:	c7 45 38 73 65 72 76 	movl   $0x76726573,0x38(%rbp)
    30db:	66 c7 45 3c 65 72    	movw   $0x7265,0x3c(%rbp)
    30e1:	c6 45 3e 00          	movb   $0x0,0x3e(%rbp)
    30e5:	89 df                	mov    %ebx,%edi
    30e7:	e8 e4 e1 ff ff       	call   12d0 <close@plt>
    30ec:	b8 ff ff ff ff       	mov    $0xffffffff,%eax
    30f1:	e9 a4 fb ff ff       	jmp    2c9a <submitr+0x2f8>
    30f6:	4c 8d 8c 24 50 80 00 	lea    0x8050(%rsp),%r9
    30fd:	00 
    30fe:	48 8d 0d f3 15 00 00 	lea    0x15f3(%rip),%rcx        # 46f8 <trans_char+0x78>
    3105:	48 c7 c2 ff ff ff ff 	mov    $0xffffffffffffffff,%rdx
    310c:	be 01 00 00 00       	mov    $0x1,%esi
    3111:	48 89 ef             	mov    %rbp,%rdi
    3114:	b8 00 00 00 00       	mov    $0x0,%eax
    3119:	e8 e2 e2 ff ff       	call   1400 <__sprintf_chk@plt>
    311e:	89 df                	mov    %ebx,%edi
    3120:	e8 ab e1 ff ff       	call   12d0 <close@plt>
    3125:	b8 ff ff ff ff       	mov    $0xffffffff,%eax
    312a:	e9 6b fb ff ff       	jmp    2c9a <submitr+0x2f8>
    312f:	e8 5c e1 ff ff       	call   1290 <__stack_chk_fail@plt>

0000000000003134 <init_timeout>:
    3134:	f3 0f 1e fa          	endbr64 
    3138:	85 ff                	test   %edi,%edi
    313a:	74 26                	je     3162 <init_timeout+0x2e>
    313c:	53                   	push   %rbx
    313d:	89 fb                	mov    %edi,%ebx
    313f:	78 1a                	js     315b <init_timeout+0x27>
    3141:	48 8d 35 8e f5 ff ff 	lea    -0xa72(%rip),%rsi        # 26d6 <sigalrm_handler>
    3148:	bf 0e 00 00 00       	mov    $0xe,%edi
    314d:	e8 9e e1 ff ff       	call   12f0 <signal@plt>
    3152:	89 df                	mov    %ebx,%edi
    3154:	e8 67 e1 ff ff       	call   12c0 <alarm@plt>
    3159:	5b                   	pop    %rbx
    315a:	c3                   	ret    
    315b:	bb 00 00 00 00       	mov    $0x0,%ebx
    3160:	eb df                	jmp    3141 <init_timeout+0xd>
    3162:	c3                   	ret    

0000000000003163 <init_driver>:
    3163:	f3 0f 1e fa          	endbr64 
    3167:	41 54                	push   %r12
    3169:	55                   	push   %rbp
    316a:	53                   	push   %rbx
    316b:	48 83 ec 20          	sub    $0x20,%rsp
    316f:	48 89 fd             	mov    %rdi,%rbp
    3172:	64 48 8b 04 25 28 00 	mov    %fs:0x28,%rax
    3179:	00 00 
    317b:	48 89 44 24 18       	mov    %rax,0x18(%rsp)
    3180:	31 c0                	xor    %eax,%eax
    3182:	be 01 00 00 00       	mov    $0x1,%esi
    3187:	bf 0d 00 00 00       	mov    $0xd,%edi
    318c:	e8 5f e1 ff ff       	call   12f0 <signal@plt>
    3191:	be 01 00 00 00       	mov    $0x1,%esi
    3196:	bf 1d 00 00 00       	mov    $0x1d,%edi
    319b:	e8 50 e1 ff ff       	call   12f0 <signal@plt>
    31a0:	be 01 00 00 00       	mov    $0x1,%esi
    31a5:	bf 1d 00 00 00       	mov    $0x1d,%edi
    31aa:	e8 41 e1 ff ff       	call   12f0 <signal@plt>
    31af:	ba 00 00 00 00       	mov    $0x0,%edx
    31b4:	be 01 00 00 00       	mov    $0x1,%esi
    31b9:	bf 02 00 00 00       	mov    $0x2,%edi
    31be:	e8 4d e2 ff ff       	call   1410 <socket@plt>
    31c3:	85 c0                	test   %eax,%eax
    31c5:	0f 88 9c 00 00 00    	js     3267 <init_driver+0x104>
    31cb:	89 c3                	mov    %eax,%ebx
    31cd:	48 8d 3d 75 15 00 00 	lea    0x1575(%rip),%rdi        # 4749 <trans_char+0xc9>
    31d4:	e8 27 e1 ff ff       	call   1300 <gethostbyname@plt>
    31d9:	48 85 c0             	test   %rax,%rax
    31dc:	0f 84 d1 00 00 00    	je     32b3 <init_driver+0x150>
    31e2:	49 89 e4             	mov    %rsp,%r12
    31e5:	48 c7 04 24 00 00 00 	movq   $0x0,(%rsp)
    31ec:	00 
    31ed:	48 c7 44 24 08 00 00 	movq   $0x0,0x8(%rsp)
    31f4:	00 00 
    31f6:	66 c7 04 24 02 00    	movw   $0x2,(%rsp)
    31fc:	48 63 50 14          	movslq 0x14(%rax),%rdx
    3200:	48 8b 40 18          	mov    0x18(%rax),%rax
    3204:	48 8b 30             	mov    (%rax),%rsi
    3207:	48 8d 7c 24 04       	lea    0x4(%rsp),%rdi
    320c:	b9 0c 00 00 00       	mov    $0xc,%ecx
    3211:	e8 fa e0 ff ff       	call   1310 <__memmove_chk@plt>
    3216:	66 c7 44 24 02 3b d2 	movw   $0xd23b,0x2(%rsp)
    321d:	ba 10 00 00 00       	mov    $0x10,%edx
    3222:	4c 89 e6             	mov    %r12,%rsi
    3225:	89 df                	mov    %ebx,%edi
    3227:	e8 a4 e1 ff ff       	call   13d0 <connect@plt>
    322c:	85 c0                	test   %eax,%eax
    322e:	0f 88 e7 00 00 00    	js     331b <init_driver+0x1b8>
    3234:	89 df                	mov    %ebx,%edi
    3236:	e8 95 e0 ff ff       	call   12d0 <close@plt>
    323b:	66 c7 45 00 4f 4b    	movw   $0x4b4f,0x0(%rbp)
    3241:	c6 45 02 00          	movb   $0x0,0x2(%rbp)
    3245:	b8 00 00 00 00       	mov    $0x0,%eax
    324a:	48 8b 4c 24 18       	mov    0x18(%rsp),%rcx
    324f:	64 48 33 0c 25 28 00 	xor    %fs:0x28,%rcx
    3256:	00 00 
    3258:	0f 85 10 01 00 00    	jne    336e <init_driver+0x20b>
    325e:	48 83 c4 20          	add    $0x20,%rsp
    3262:	5b                   	pop    %rbx
    3263:	5d                   	pop    %rbp
    3264:	41 5c                	pop    %r12
    3266:	c3                   	ret    
    3267:	48 b8 45 72 72 6f 72 	movabs $0x43203a726f727245,%rax
    326e:	3a 20 43 
    3271:	48 ba 6c 69 65 6e 74 	movabs $0x6e7520746e65696c,%rdx
    3278:	20 75 6e 
    327b:	48 89 45 00          	mov    %rax,0x0(%rbp)
    327f:	48 89 55 08          	mov    %rdx,0x8(%rbp)
    3283:	48 b8 61 62 6c 65 20 	movabs $0x206f7420656c6261,%rax
    328a:	74 6f 20 
    328d:	48 ba 63 72 65 61 74 	movabs $0x7320657461657263,%rdx
    3294:	65 20 73 
    3297:	48 89 45 10          	mov    %rax,0x10(%rbp)
    329b:	48 89 55 18          	mov    %rdx,0x18(%rbp)
    329f:	c7 45 20 6f 63 6b 65 	movl   $0x656b636f,0x20(%rbp)
    32a6:	66 c7 45 24 74 00    	movw   $0x74,0x24(%rbp)
    32ac:	b8 ff ff ff ff       	mov    $0xffffffff,%eax
    32b1:	eb 97                	jmp    324a <init_driver+0xe7>
    32b3:	48 b8 45 72 72 6f 72 	movabs $0x44203a726f727245,%rax
    32ba:	3a 20 44 
    32bd:	48 ba 4e 53 20 69 73 	movabs $0x6e7520736920534e,%rdx
    32c4:	20 75 6e 
    32c7:	48 89 45 00          	mov    %rax,0x0(%rbp)
    32cb:	48 89 55 08          	mov    %rdx,0x8(%rbp)
    32cf:	48 b8 61 62 6c 65 20 	movabs $0x206f7420656c6261,%rax
    32d6:	74 6f 20 
    32d9:	48 ba 72 65 73 6f 6c 	movabs $0x2065766c6f736572,%rdx
    32e0:	76 65 20 
    32e3:	48 89 45 10          	mov    %rax,0x10(%rbp)
    32e7:	48 89 55 18          	mov    %rdx,0x18(%rbp)
    32eb:	48 b8 73 65 72 76 65 	movabs $0x6120726576726573,%rax
    32f2:	72 20 61 
    32f5:	48 89 45 20          	mov    %rax,0x20(%rbp)
    32f9:	c7 45 28 64 64 72 65 	movl   $0x65726464,0x28(%rbp)
    3300:	66 c7 45 2c 73 73    	movw   $0x7373,0x2c(%rbp)
    3306:	c6 45 2e 00          	movb   $0x0,0x2e(%rbp)
    330a:	89 df                	mov    %ebx,%edi
    330c:	e8 bf df ff ff       	call   12d0 <close@plt>
    3311:	b8 ff ff ff ff       	mov    $0xffffffff,%eax
    3316:	e9 2f ff ff ff       	jmp    324a <init_driver+0xe7>
    331b:	48 b8 45 72 72 6f 72 	movabs $0x55203a726f727245,%rax
    3322:	3a 20 55 
    3325:	48 ba 6e 61 62 6c 65 	movabs $0x6f7420656c62616e,%rdx
    332c:	20 74 6f 
    332f:	48 89 45 00          	mov    %rax,0x0(%rbp)
    3333:	48 89 55 08          	mov    %rdx,0x8(%rbp)
    3337:	48 b8 20 63 6f 6e 6e 	movabs $0x7463656e6e6f6320,%rax
    333e:	65 63 74 
    3341:	48 ba 20 74 6f 20 73 	movabs $0x76726573206f7420,%rdx
    3348:	65 72 76 
    334b:	48 89 45 10          	mov    %rax,0x10(%rbp)
    334f:	48 89 55 18          	mov    %rdx,0x18(%rbp)
    3353:	66 c7 45 20 65 72    	movw   $0x7265,0x20(%rbp)
    3359:	c6 45 22 00          	movb   $0x0,0x22(%rbp)
    335d:	89 df                	mov    %ebx,%edi
    335f:	e8 6c df ff ff       	call   12d0 <close@plt>
    3364:	b8 ff ff ff ff       	mov    $0xffffffff,%eax
    3369:	e9 dc fe ff ff       	jmp    324a <init_driver+0xe7>
    336e:	e8 1d df ff ff       	call   1290 <__stack_chk_fail@plt>

0000000000003373 <driver_post>:
    3373:	f3 0f 1e fa          	endbr64 
    3377:	53                   	push   %rbx
    3378:	4c 89 cb             	mov    %r9,%rbx
    337b:	45 85 c0             	test   %r8d,%r8d
    337e:	75 18                	jne    3398 <driver_post+0x25>
    3380:	48 85 ff             	test   %rdi,%rdi
    3383:	74 05                	je     338a <driver_post+0x17>
    3385:	80 3f 00             	cmpb   $0x0,(%rdi)
    3388:	75 37                	jne    33c1 <driver_post+0x4e>
    338a:	66 c7 03 4f 4b       	movw   $0x4b4f,(%rbx)
    338f:	c6 43 02 00          	movb   $0x0,0x2(%rbx)
    3393:	44 89 c0             	mov    %r8d,%eax
    3396:	5b                   	pop    %rbx
    3397:	c3                   	ret    
    3398:	48 89 ca             	mov    %rcx,%rdx
    339b:	48 8d 35 b4 13 00 00 	lea    0x13b4(%rip),%rsi        # 4756 <trans_char+0xd6>
    33a2:	bf 01 00 00 00       	mov    $0x1,%edi
    33a7:	b8 00 00 00 00       	mov    $0x0,%eax
    33ac:	e8 cf df ff ff       	call   1380 <__printf_chk@plt>
    33b1:	66 c7 03 4f 4b       	movw   $0x4b4f,(%rbx)
    33b6:	c6 43 02 00          	movb   $0x0,0x2(%rbx)
    33ba:	b8 00 00 00 00       	mov    $0x0,%eax
    33bf:	eb d5                	jmp    3396 <driver_post+0x23>
    33c1:	48 83 ec 08          	sub    $0x8,%rsp
    33c5:	41 51                	push   %r9
    33c7:	49 89 c9             	mov    %rcx,%r9
    33ca:	49 89 d0             	mov    %rdx,%r8
    33cd:	48 89 f9             	mov    %rdi,%rcx
    33d0:	48 89 f2             	mov    %rsi,%rdx
    33d3:	be d2 3b 00 00       	mov    $0x3bd2,%esi
    33d8:	48 8d 3d 6a 13 00 00 	lea    0x136a(%rip),%rdi        # 4749 <trans_char+0xc9>
    33df:	e8 be f5 ff ff       	call   29a2 <submitr>
    33e4:	48 83 c4 10          	add    $0x10,%rsp
    33e8:	eb ac                	jmp    3396 <driver_post+0x23>

00000000000033ea <check>:
    33ea:	f3 0f 1e fa          	endbr64 
    33ee:	89 f8                	mov    %edi,%eax
    33f0:	c1 e8 1c             	shr    $0x1c,%eax
    33f3:	74 1d                	je     3412 <check+0x28>
    33f5:	b9 00 00 00 00       	mov    $0x0,%ecx
    33fa:	83 f9 1f             	cmp    $0x1f,%ecx
    33fd:	7f 0d                	jg     340c <check+0x22>
    33ff:	89 f8                	mov    %edi,%eax
    3401:	d3 e8                	shr    %cl,%eax
    3403:	3c 0a                	cmp    $0xa,%al
    3405:	74 11                	je     3418 <check+0x2e>
    3407:	83 c1 08             	add    $0x8,%ecx
    340a:	eb ee                	jmp    33fa <check+0x10>
    340c:	b8 01 00 00 00       	mov    $0x1,%eax
    3411:	c3                   	ret    
    3412:	b8 00 00 00 00       	mov    $0x0,%eax
    3417:	c3                   	ret    
    3418:	b8 00 00 00 00       	mov    $0x0,%eax
    341d:	c3                   	ret    

000000000000341e <gencookie>:
    341e:	f3 0f 1e fa          	endbr64 
    3422:	53                   	push   %rbx
    3423:	83 c7 01             	add    $0x1,%edi
    3426:	e8 15 de ff ff       	call   1240 <srandom@plt>
    342b:	e8 20 df ff ff       	call   1350 <random@plt>
    3430:	48 89 c7             	mov    %rax,%rdi
    3433:	89 c3                	mov    %eax,%ebx
    3435:	e8 b0 ff ff ff       	call   33ea <check>
    343a:	85 c0                	test   %eax,%eax
    343c:	74 ed                	je     342b <gencookie+0xd>
    343e:	89 d8                	mov    %ebx,%eax
    3440:	5b                   	pop    %rbx
    3441:	c3                   	ret    
    3442:	66 2e 0f 1f 84 00 00 	cs nopw 0x0(%rax,%rax,1)
    3449:	00 00 00 
    344c:	0f 1f 40 00          	nopl   0x0(%rax)

0000000000003450 <__libc_csu_init>:
    3450:	f3 0f 1e fa          	endbr64 
    3454:	41 57                	push   %r15
    3456:	4c 8d 3d 6b 38 00 00 	lea    0x386b(%rip),%r15        # 6cc8 <__frame_dummy_init_array_entry>
    345d:	41 56                	push   %r14
    345f:	49 89 d6             	mov    %rdx,%r14
    3462:	41 55                	push   %r13
    3464:	49 89 f5             	mov    %rsi,%r13
    3467:	41 54                	push   %r12
    3469:	41 89 fc             	mov    %edi,%r12d
    346c:	55                   	push   %rbp
    346d:	48 8d 2d 5c 38 00 00 	lea    0x385c(%rip),%rbp        # 6cd0 <__do_global_dtors_aux_fini_array_entry>
    3474:	53                   	push   %rbx
    3475:	4c 29 fd             	sub    %r15,%rbp
    3478:	48 83 ec 08          	sub    $0x8,%rsp
    347c:	e8 7f db ff ff       	call   1000 <_init>
    3481:	48 c1 fd 03          	sar    $0x3,%rbp
    3485:	74 1f                	je     34a6 <__libc_csu_init+0x56>
    3487:	31 db                	xor    %ebx,%ebx
    3489:	0f 1f 80 00 00 00 00 	nopl   0x0(%rax)
    3490:	4c 89 f2             	mov    %r14,%rdx
    3493:	4c 89 ee             	mov    %r13,%rsi
    3496:	44 89 e7             	mov    %r12d,%edi
    3499:	41 ff 14 df          	call   *(%r15,%rbx,8)
    349d:	48 83 c3 01          	add    $0x1,%rbx
    34a1:	48 39 dd             	cmp    %rbx,%rbp
    34a4:	75 ea                	jne    3490 <__libc_csu_init+0x40>
    34a6:	48 83 c4 08          	add    $0x8,%rsp
    34aa:	5b                   	pop    %rbx
    34ab:	5d                   	pop    %rbp
    34ac:	41 5c                	pop    %r12
    34ae:	41 5d                	pop    %r13
    34b0:	41 5e                	pop    %r14
    34b2:	41 5f                	pop    %r15
    34b4:	c3                   	ret    
    34b5:	66 66 2e 0f 1f 84 00 	data16 cs nopw 0x0(%rax,%rax,1)
    34bc:	00 00 00 00 

00000000000034c0 <__libc_csu_fini>:
    34c0:	f3 0f 1e fa          	endbr64 
    34c4:	c3                   	ret    

Disassembly of section .fini:

00000000000034c8 <_fini>:
    34c8:	f3 0f 1e fa          	endbr64 
    34cc:	48 83 ec 08          	sub    $0x8,%rsp
    34d0:	48 83 c4 08          	add    $0x8,%rsp
    34d4:	c3                   	ret    
